
rtarget:     file format elf64-x86-64


Disassembly of section .init:

0000000000400c60 <_init>:
  400c60:	48 83 ec 08          	sub    $0x8,%rsp
  400c64:	48 8b 05 8d 43 20 00 	mov    0x20438d(%rip),%rax        # 604ff8 <_DYNAMIC+0x1d0>
  400c6b:	48 85 c0             	test   %rax,%rax
  400c6e:	74 05                	je     400c75 <_init+0x15>
  400c70:	e8 2b 01 00 00       	callq  400da0 <__gmon_start__@plt>
  400c75:	48 83 c4 08          	add    $0x8,%rsp
  400c79:	c3                   	retq   

Disassembly of section .plt:

0000000000400c80 <strcasecmp@plt-0x10>:
  400c80:	ff 35 82 43 20 00    	pushq  0x204382(%rip)        # 605008 <_GLOBAL_OFFSET_TABLE_+0x8>
  400c86:	ff 25 84 43 20 00    	jmpq   *0x204384(%rip)        # 605010 <_GLOBAL_OFFSET_TABLE_+0x10>
  400c8c:	0f 1f 40 00          	nopl   0x0(%rax)

0000000000400c90 <strcasecmp@plt>:
  400c90:	ff 25 82 43 20 00    	jmpq   *0x204382(%rip)        # 605018 <_GLOBAL_OFFSET_TABLE_+0x18>
  400c96:	68 00 00 00 00       	pushq  $0x0
  400c9b:	e9 e0 ff ff ff       	jmpq   400c80 <_init+0x20>

0000000000400ca0 <__errno_location@plt>:
  400ca0:	ff 25 7a 43 20 00    	jmpq   *0x20437a(%rip)        # 605020 <_GLOBAL_OFFSET_TABLE_+0x20>
  400ca6:	68 01 00 00 00       	pushq  $0x1
  400cab:	e9 d0 ff ff ff       	jmpq   400c80 <_init+0x20>

0000000000400cb0 <srandom@plt>:
  400cb0:	ff 25 72 43 20 00    	jmpq   *0x204372(%rip)        # 605028 <_GLOBAL_OFFSET_TABLE_+0x28>
  400cb6:	68 02 00 00 00       	pushq  $0x2
  400cbb:	e9 c0 ff ff ff       	jmpq   400c80 <_init+0x20>

0000000000400cc0 <strncmp@plt>:
  400cc0:	ff 25 6a 43 20 00    	jmpq   *0x20436a(%rip)        # 605030 <_GLOBAL_OFFSET_TABLE_+0x30>
  400cc6:	68 03 00 00 00       	pushq  $0x3
  400ccb:	e9 b0 ff ff ff       	jmpq   400c80 <_init+0x20>

0000000000400cd0 <strcpy@plt>:
  400cd0:	ff 25 62 43 20 00    	jmpq   *0x204362(%rip)        # 605038 <_GLOBAL_OFFSET_TABLE_+0x38>
  400cd6:	68 04 00 00 00       	pushq  $0x4
  400cdb:	e9 a0 ff ff ff       	jmpq   400c80 <_init+0x20>

0000000000400ce0 <puts@plt>:
  400ce0:	ff 25 5a 43 20 00    	jmpq   *0x20435a(%rip)        # 605040 <_GLOBAL_OFFSET_TABLE_+0x40>
  400ce6:	68 05 00 00 00       	pushq  $0x5
  400ceb:	e9 90 ff ff ff       	jmpq   400c80 <_init+0x20>

0000000000400cf0 <write@plt>:
  400cf0:	ff 25 52 43 20 00    	jmpq   *0x204352(%rip)        # 605048 <_GLOBAL_OFFSET_TABLE_+0x48>
  400cf6:	68 06 00 00 00       	pushq  $0x6
  400cfb:	e9 80 ff ff ff       	jmpq   400c80 <_init+0x20>

0000000000400d00 <__stack_chk_fail@plt>:
  400d00:	ff 25 4a 43 20 00    	jmpq   *0x20434a(%rip)        # 605050 <_GLOBAL_OFFSET_TABLE_+0x50>
  400d06:	68 07 00 00 00       	pushq  $0x7
  400d0b:	e9 70 ff ff ff       	jmpq   400c80 <_init+0x20>

0000000000400d10 <mmap@plt>:
  400d10:	ff 25 42 43 20 00    	jmpq   *0x204342(%rip)        # 605058 <_GLOBAL_OFFSET_TABLE_+0x58>
  400d16:	68 08 00 00 00       	pushq  $0x8
  400d1b:	e9 60 ff ff ff       	jmpq   400c80 <_init+0x20>

0000000000400d20 <memset@plt>:
  400d20:	ff 25 3a 43 20 00    	jmpq   *0x20433a(%rip)        # 605060 <_GLOBAL_OFFSET_TABLE_+0x60>
  400d26:	68 09 00 00 00       	pushq  $0x9
  400d2b:	e9 50 ff ff ff       	jmpq   400c80 <_init+0x20>

0000000000400d30 <alarm@plt>:
  400d30:	ff 25 32 43 20 00    	jmpq   *0x204332(%rip)        # 605068 <_GLOBAL_OFFSET_TABLE_+0x68>
  400d36:	68 0a 00 00 00       	pushq  $0xa
  400d3b:	e9 40 ff ff ff       	jmpq   400c80 <_init+0x20>

0000000000400d40 <close@plt>:
  400d40:	ff 25 2a 43 20 00    	jmpq   *0x20432a(%rip)        # 605070 <_GLOBAL_OFFSET_TABLE_+0x70>
  400d46:	68 0b 00 00 00       	pushq  $0xb
  400d4b:	e9 30 ff ff ff       	jmpq   400c80 <_init+0x20>

0000000000400d50 <read@plt>:
  400d50:	ff 25 22 43 20 00    	jmpq   *0x204322(%rip)        # 605078 <_GLOBAL_OFFSET_TABLE_+0x78>
  400d56:	68 0c 00 00 00       	pushq  $0xc
  400d5b:	e9 20 ff ff ff       	jmpq   400c80 <_init+0x20>

0000000000400d60 <__libc_start_main@plt>:
  400d60:	ff 25 1a 43 20 00    	jmpq   *0x20431a(%rip)        # 605080 <_GLOBAL_OFFSET_TABLE_+0x80>
  400d66:	68 0d 00 00 00       	pushq  $0xd
  400d6b:	e9 10 ff ff ff       	jmpq   400c80 <_init+0x20>

0000000000400d70 <signal@plt>:
  400d70:	ff 25 12 43 20 00    	jmpq   *0x204312(%rip)        # 605088 <_GLOBAL_OFFSET_TABLE_+0x88>
  400d76:	68 0e 00 00 00       	pushq  $0xe
  400d7b:	e9 00 ff ff ff       	jmpq   400c80 <_init+0x20>

0000000000400d80 <gethostbyname@plt>:
  400d80:	ff 25 0a 43 20 00    	jmpq   *0x20430a(%rip)        # 605090 <_GLOBAL_OFFSET_TABLE_+0x90>
  400d86:	68 0f 00 00 00       	pushq  $0xf
  400d8b:	e9 f0 fe ff ff       	jmpq   400c80 <_init+0x20>

0000000000400d90 <__memmove_chk@plt>:
  400d90:	ff 25 02 43 20 00    	jmpq   *0x204302(%rip)        # 605098 <_GLOBAL_OFFSET_TABLE_+0x98>
  400d96:	68 10 00 00 00       	pushq  $0x10
  400d9b:	e9 e0 fe ff ff       	jmpq   400c80 <_init+0x20>

0000000000400da0 <__gmon_start__@plt>:
  400da0:	ff 25 fa 42 20 00    	jmpq   *0x2042fa(%rip)        # 6050a0 <_GLOBAL_OFFSET_TABLE_+0xa0>
  400da6:	68 11 00 00 00       	pushq  $0x11
  400dab:	e9 d0 fe ff ff       	jmpq   400c80 <_init+0x20>

0000000000400db0 <strtol@plt>:
  400db0:	ff 25 f2 42 20 00    	jmpq   *0x2042f2(%rip)        # 6050a8 <_GLOBAL_OFFSET_TABLE_+0xa8>
  400db6:	68 12 00 00 00       	pushq  $0x12
  400dbb:	e9 c0 fe ff ff       	jmpq   400c80 <_init+0x20>

0000000000400dc0 <memcpy@plt>:
  400dc0:	ff 25 ea 42 20 00    	jmpq   *0x2042ea(%rip)        # 6050b0 <_GLOBAL_OFFSET_TABLE_+0xb0>
  400dc6:	68 13 00 00 00       	pushq  $0x13
  400dcb:	e9 b0 fe ff ff       	jmpq   400c80 <_init+0x20>

0000000000400dd0 <time@plt>:
  400dd0:	ff 25 e2 42 20 00    	jmpq   *0x2042e2(%rip)        # 6050b8 <_GLOBAL_OFFSET_TABLE_+0xb8>
  400dd6:	68 14 00 00 00       	pushq  $0x14
  400ddb:	e9 a0 fe ff ff       	jmpq   400c80 <_init+0x20>

0000000000400de0 <random@plt>:
  400de0:	ff 25 da 42 20 00    	jmpq   *0x2042da(%rip)        # 6050c0 <_GLOBAL_OFFSET_TABLE_+0xc0>
  400de6:	68 15 00 00 00       	pushq  $0x15
  400deb:	e9 90 fe ff ff       	jmpq   400c80 <_init+0x20>

0000000000400df0 <_IO_getc@plt>:
  400df0:	ff 25 d2 42 20 00    	jmpq   *0x2042d2(%rip)        # 6050c8 <_GLOBAL_OFFSET_TABLE_+0xc8>
  400df6:	68 16 00 00 00       	pushq  $0x16
  400dfb:	e9 80 fe ff ff       	jmpq   400c80 <_init+0x20>

0000000000400e00 <__isoc99_sscanf@plt>:
  400e00:	ff 25 ca 42 20 00    	jmpq   *0x2042ca(%rip)        # 6050d0 <_GLOBAL_OFFSET_TABLE_+0xd0>
  400e06:	68 17 00 00 00       	pushq  $0x17
  400e0b:	e9 70 fe ff ff       	jmpq   400c80 <_init+0x20>

0000000000400e10 <munmap@plt>:
  400e10:	ff 25 c2 42 20 00    	jmpq   *0x2042c2(%rip)        # 6050d8 <_GLOBAL_OFFSET_TABLE_+0xd8>
  400e16:	68 18 00 00 00       	pushq  $0x18
  400e1b:	e9 60 fe ff ff       	jmpq   400c80 <_init+0x20>

0000000000400e20 <__printf_chk@plt>:
  400e20:	ff 25 ba 42 20 00    	jmpq   *0x2042ba(%rip)        # 6050e0 <_GLOBAL_OFFSET_TABLE_+0xe0>
  400e26:	68 19 00 00 00       	pushq  $0x19
  400e2b:	e9 50 fe ff ff       	jmpq   400c80 <_init+0x20>

0000000000400e30 <fopen@plt>:
  400e30:	ff 25 b2 42 20 00    	jmpq   *0x2042b2(%rip)        # 6050e8 <_GLOBAL_OFFSET_TABLE_+0xe8>
  400e36:	68 1a 00 00 00       	pushq  $0x1a
  400e3b:	e9 40 fe ff ff       	jmpq   400c80 <_init+0x20>

0000000000400e40 <getopt@plt>:
  400e40:	ff 25 aa 42 20 00    	jmpq   *0x2042aa(%rip)        # 6050f0 <_GLOBAL_OFFSET_TABLE_+0xf0>
  400e46:	68 1b 00 00 00       	pushq  $0x1b
  400e4b:	e9 30 fe ff ff       	jmpq   400c80 <_init+0x20>

0000000000400e50 <strtoul@plt>:
  400e50:	ff 25 a2 42 20 00    	jmpq   *0x2042a2(%rip)        # 6050f8 <_GLOBAL_OFFSET_TABLE_+0xf8>
  400e56:	68 1c 00 00 00       	pushq  $0x1c
  400e5b:	e9 20 fe ff ff       	jmpq   400c80 <_init+0x20>

0000000000400e60 <gethostname@plt>:
  400e60:	ff 25 9a 42 20 00    	jmpq   *0x20429a(%rip)        # 605100 <_GLOBAL_OFFSET_TABLE_+0x100>
  400e66:	68 1d 00 00 00       	pushq  $0x1d
  400e6b:	e9 10 fe ff ff       	jmpq   400c80 <_init+0x20>

0000000000400e70 <exit@plt>:
  400e70:	ff 25 92 42 20 00    	jmpq   *0x204292(%rip)        # 605108 <_GLOBAL_OFFSET_TABLE_+0x108>
  400e76:	68 1e 00 00 00       	pushq  $0x1e
  400e7b:	e9 00 fe ff ff       	jmpq   400c80 <_init+0x20>

0000000000400e80 <connect@plt>:
  400e80:	ff 25 8a 42 20 00    	jmpq   *0x20428a(%rip)        # 605110 <_GLOBAL_OFFSET_TABLE_+0x110>
  400e86:	68 1f 00 00 00       	pushq  $0x1f
  400e8b:	e9 f0 fd ff ff       	jmpq   400c80 <_init+0x20>

0000000000400e90 <__fprintf_chk@plt>:
  400e90:	ff 25 82 42 20 00    	jmpq   *0x204282(%rip)        # 605118 <_GLOBAL_OFFSET_TABLE_+0x118>
  400e96:	68 20 00 00 00       	pushq  $0x20
  400e9b:	e9 e0 fd ff ff       	jmpq   400c80 <_init+0x20>

0000000000400ea0 <__sprintf_chk@plt>:
  400ea0:	ff 25 7a 42 20 00    	jmpq   *0x20427a(%rip)        # 605120 <_GLOBAL_OFFSET_TABLE_+0x120>
  400ea6:	68 21 00 00 00       	pushq  $0x21
  400eab:	e9 d0 fd ff ff       	jmpq   400c80 <_init+0x20>

0000000000400eb0 <socket@plt>:
  400eb0:	ff 25 72 42 20 00    	jmpq   *0x204272(%rip)        # 605128 <_GLOBAL_OFFSET_TABLE_+0x128>
  400eb6:	68 22 00 00 00       	pushq  $0x22
  400ebb:	e9 c0 fd ff ff       	jmpq   400c80 <_init+0x20>

Disassembly of section .text:

0000000000400ec0 <_start>:
  400ec0:	31 ed                	xor    %ebp,%ebp
  400ec2:	49 89 d1             	mov    %rdx,%r9
  400ec5:	5e                   	pop    %rsi
  400ec6:	48 89 e2             	mov    %rsp,%rdx
  400ec9:	48 83 e4 f0          	and    $0xfffffffffffffff0,%rsp
  400ecd:	50                   	push   %rax
  400ece:	54                   	push   %rsp
  400ecf:	49 c7 c0 90 2f 40 00 	mov    $0x402f90,%r8
  400ed6:	48 c7 c1 20 2f 40 00 	mov    $0x402f20,%rcx
  400edd:	48 c7 c7 bf 11 40 00 	mov    $0x4011bf,%rdi
  400ee4:	e8 77 fe ff ff       	callq  400d60 <__libc_start_main@plt>
  400ee9:	f4                   	hlt    
  400eea:	66 0f 1f 44 00 00    	nopw   0x0(%rax,%rax,1)

0000000000400ef0 <deregister_tm_clones>:
  400ef0:	b8 b7 54 60 00       	mov    $0x6054b7,%eax
  400ef5:	55                   	push   %rbp
  400ef6:	48 2d b0 54 60 00    	sub    $0x6054b0,%rax
  400efc:	48 83 f8 0e          	cmp    $0xe,%rax
  400f00:	48 89 e5             	mov    %rsp,%rbp
  400f03:	77 02                	ja     400f07 <deregister_tm_clones+0x17>
  400f05:	5d                   	pop    %rbp
  400f06:	c3                   	retq   
  400f07:	b8 00 00 00 00       	mov    $0x0,%eax
  400f0c:	48 85 c0             	test   %rax,%rax
  400f0f:	74 f4                	je     400f05 <deregister_tm_clones+0x15>
  400f11:	5d                   	pop    %rbp
  400f12:	bf b0 54 60 00       	mov    $0x6054b0,%edi
  400f17:	ff e0                	jmpq   *%rax
  400f19:	0f 1f 80 00 00 00 00 	nopl   0x0(%rax)

0000000000400f20 <register_tm_clones>:
  400f20:	b8 b0 54 60 00       	mov    $0x6054b0,%eax
  400f25:	55                   	push   %rbp
  400f26:	48 2d b0 54 60 00    	sub    $0x6054b0,%rax
  400f2c:	48 c1 f8 03          	sar    $0x3,%rax
  400f30:	48 89 e5             	mov    %rsp,%rbp
  400f33:	48 89 c2             	mov    %rax,%rdx
  400f36:	48 c1 ea 3f          	shr    $0x3f,%rdx
  400f3a:	48 01 d0             	add    %rdx,%rax
  400f3d:	48 d1 f8             	sar    %rax
  400f40:	75 02                	jne    400f44 <register_tm_clones+0x24>
  400f42:	5d                   	pop    %rbp
  400f43:	c3                   	retq   
  400f44:	ba 00 00 00 00       	mov    $0x0,%edx
  400f49:	48 85 d2             	test   %rdx,%rdx
  400f4c:	74 f4                	je     400f42 <register_tm_clones+0x22>
  400f4e:	5d                   	pop    %rbp
  400f4f:	48 89 c6             	mov    %rax,%rsi
  400f52:	bf b0 54 60 00       	mov    $0x6054b0,%edi
  400f57:	ff e2                	jmpq   *%rdx
  400f59:	0f 1f 80 00 00 00 00 	nopl   0x0(%rax)

0000000000400f60 <__do_global_dtors_aux>:
  400f60:	80 3d 89 45 20 00 00 	cmpb   $0x0,0x204589(%rip)        # 6054f0 <completed.6973>
  400f67:	75 11                	jne    400f7a <__do_global_dtors_aux+0x1a>
  400f69:	55                   	push   %rbp
  400f6a:	48 89 e5             	mov    %rsp,%rbp
  400f6d:	e8 7e ff ff ff       	callq  400ef0 <deregister_tm_clones>
  400f72:	5d                   	pop    %rbp
  400f73:	c6 05 76 45 20 00 01 	movb   $0x1,0x204576(%rip)        # 6054f0 <completed.6973>
  400f7a:	f3 c3                	repz retq 
  400f7c:	0f 1f 40 00          	nopl   0x0(%rax)

0000000000400f80 <frame_dummy>:
  400f80:	48 83 3d 98 3e 20 00 	cmpq   $0x0,0x203e98(%rip)        # 604e20 <__JCR_END__>
  400f87:	00 
  400f88:	74 1e                	je     400fa8 <frame_dummy+0x28>
  400f8a:	b8 00 00 00 00       	mov    $0x0,%eax
  400f8f:	48 85 c0             	test   %rax,%rax
  400f92:	74 14                	je     400fa8 <frame_dummy+0x28>
  400f94:	55                   	push   %rbp
  400f95:	bf 20 4e 60 00       	mov    $0x604e20,%edi
  400f9a:	48 89 e5             	mov    %rsp,%rbp
  400f9d:	ff d0                	callq  *%rax
  400f9f:	5d                   	pop    %rbp
  400fa0:	e9 7b ff ff ff       	jmpq   400f20 <register_tm_clones>
  400fa5:	0f 1f 00             	nopl   (%rax)
  400fa8:	e9 73 ff ff ff       	jmpq   400f20 <register_tm_clones>
  400fad:	0f 1f 00             	nopl   (%rax)

0000000000400fb0 <usage>:
  400fb0:	48 83 ec 08          	sub    $0x8,%rsp
  400fb4:	48 89 fa             	mov    %rdi,%rdx
  400fb7:	83 3d 6a 45 20 00 00 	cmpl   $0x0,0x20456a(%rip)        # 605528 <is_checker>
  400fbe:	74 3e                	je     400ffe <usage+0x4e>
  400fc0:	be a8 2f 40 00       	mov    $0x402fa8,%esi
  400fc5:	bf 01 00 00 00       	mov    $0x1,%edi
  400fca:	b8 00 00 00 00       	mov    $0x0,%eax
  400fcf:	e8 4c fe ff ff       	callq  400e20 <__printf_chk@plt>
  400fd4:	bf e0 2f 40 00       	mov    $0x402fe0,%edi
  400fd9:	e8 02 fd ff ff       	callq  400ce0 <puts@plt>
  400fde:	bf 58 31 40 00       	mov    $0x403158,%edi
  400fe3:	e8 f8 fc ff ff       	callq  400ce0 <puts@plt>
  400fe8:	bf 08 30 40 00       	mov    $0x403008,%edi
  400fed:	e8 ee fc ff ff       	callq  400ce0 <puts@plt>
  400ff2:	bf 72 31 40 00       	mov    $0x403172,%edi
  400ff7:	e8 e4 fc ff ff       	callq  400ce0 <puts@plt>
  400ffc:	eb 32                	jmp    401030 <usage+0x80>
  400ffe:	be 8e 31 40 00       	mov    $0x40318e,%esi
  401003:	bf 01 00 00 00       	mov    $0x1,%edi
  401008:	b8 00 00 00 00       	mov    $0x0,%eax
  40100d:	e8 0e fe ff ff       	callq  400e20 <__printf_chk@plt>
  401012:	bf 30 30 40 00       	mov    $0x403030,%edi
  401017:	e8 c4 fc ff ff       	callq  400ce0 <puts@plt>
  40101c:	bf 58 30 40 00       	mov    $0x403058,%edi
  401021:	e8 ba fc ff ff       	callq  400ce0 <puts@plt>
  401026:	bf ac 31 40 00       	mov    $0x4031ac,%edi
  40102b:	e8 b0 fc ff ff       	callq  400ce0 <puts@plt>
  401030:	bf 00 00 00 00       	mov    $0x0,%edi
  401035:	e8 36 fe ff ff       	callq  400e70 <exit@plt>

000000000040103a <initialize_target>:
  40103a:	55                   	push   %rbp
  40103b:	53                   	push   %rbx
  40103c:	48 81 ec 18 21 00 00 	sub    $0x2118,%rsp
  401043:	89 f5                	mov    %esi,%ebp
  401045:	64 48 8b 04 25 28 00 	mov    %fs:0x28,%rax
  40104c:	00 00 
  40104e:	48 89 84 24 08 21 00 	mov    %rax,0x2108(%rsp)
  401055:	00 
  401056:	31 c0                	xor    %eax,%eax
  401058:	89 3d ba 44 20 00    	mov    %edi,0x2044ba(%rip)        # 605518 <check_level>
  40105e:	8b 3d 04 41 20 00    	mov    0x204104(%rip),%edi        # 605168 <target_id>
  401064:	e8 8a 1e 00 00       	callq  402ef3 <gencookie>
  401069:	89 05 b5 44 20 00    	mov    %eax,0x2044b5(%rip)        # 605524 <cookie>
  40106f:	89 c7                	mov    %eax,%edi
  401071:	e8 7d 1e 00 00       	callq  402ef3 <gencookie>
  401076:	89 05 a4 44 20 00    	mov    %eax,0x2044a4(%rip)        # 605520 <authkey>
  40107c:	8b 05 e6 40 20 00    	mov    0x2040e6(%rip),%eax        # 605168 <target_id>
  401082:	8d 78 01             	lea    0x1(%rax),%edi
  401085:	e8 26 fc ff ff       	callq  400cb0 <srandom@plt>
  40108a:	e8 51 fd ff ff       	callq  400de0 <random@plt>
  40108f:	89 c7                	mov    %eax,%edi
  401091:	e8 03 03 00 00       	callq  401399 <scramble>
  401096:	89 c3                	mov    %eax,%ebx
  401098:	85 ed                	test   %ebp,%ebp
  40109a:	74 18                	je     4010b4 <initialize_target+0x7a>
  40109c:	bf 00 00 00 00       	mov    $0x0,%edi
  4010a1:	e8 2a fd ff ff       	callq  400dd0 <time@plt>
  4010a6:	89 c7                	mov    %eax,%edi
  4010a8:	e8 03 fc ff ff       	callq  400cb0 <srandom@plt>
  4010ad:	e8 2e fd ff ff       	callq  400de0 <random@plt>
  4010b2:	eb 05                	jmp    4010b9 <initialize_target+0x7f>
  4010b4:	b8 00 00 00 00       	mov    $0x0,%eax
  4010b9:	01 c3                	add    %eax,%ebx
  4010bb:	0f b7 db             	movzwl %bx,%ebx
  4010be:	8d 04 dd 00 01 00 00 	lea    0x100(,%rbx,8),%eax
  4010c5:	89 c0                	mov    %eax,%eax
  4010c7:	48 89 05 d2 43 20 00 	mov    %rax,0x2043d2(%rip)        # 6054a0 <buf_offset>
  4010ce:	c6 05 73 50 20 00 72 	movb   $0x72,0x205073(%rip)        # 606148 <target_prefix>
  4010d5:	83 3d cc 43 20 00 00 	cmpl   $0x0,0x2043cc(%rip)        # 6054a8 <notify>
  4010dc:	0f 84 bb 00 00 00    	je     40119d <initialize_target+0x163>
  4010e2:	83 3d 3f 44 20 00 00 	cmpl   $0x0,0x20443f(%rip)        # 605528 <is_checker>
  4010e9:	0f 85 ae 00 00 00    	jne    40119d <initialize_target+0x163>
  4010ef:	be 00 01 00 00       	mov    $0x100,%esi
  4010f4:	48 89 e7             	mov    %rsp,%rdi
  4010f7:	e8 64 fd ff ff       	callq  400e60 <gethostname@plt>
  4010fc:	85 c0                	test   %eax,%eax
  4010fe:	74 25                	je     401125 <initialize_target+0xeb>
  401100:	bf 88 30 40 00       	mov    $0x403088,%edi
  401105:	e8 d6 fb ff ff       	callq  400ce0 <puts@plt>
  40110a:	bf 08 00 00 00       	mov    $0x8,%edi
  40110f:	e8 5c fd ff ff       	callq  400e70 <exit@plt>
  401114:	48 89 e6             	mov    %rsp,%rsi
  401117:	e8 74 fb ff ff       	callq  400c90 <strcasecmp@plt>
  40111c:	85 c0                	test   %eax,%eax
  40111e:	74 21                	je     401141 <initialize_target+0x107>
  401120:	83 c3 01             	add    $0x1,%ebx
  401123:	eb 05                	jmp    40112a <initialize_target+0xf0>
  401125:	bb 00 00 00 00       	mov    $0x0,%ebx
  40112a:	48 63 c3             	movslq %ebx,%rax
  40112d:	48 8b 3c c5 80 51 60 	mov    0x605180(,%rax,8),%rdi
  401134:	00 
  401135:	48 85 ff             	test   %rdi,%rdi
  401138:	75 da                	jne    401114 <initialize_target+0xda>
  40113a:	b8 00 00 00 00       	mov    $0x0,%eax
  40113f:	eb 05                	jmp    401146 <initialize_target+0x10c>
  401141:	b8 01 00 00 00       	mov    $0x1,%eax
  401146:	85 c0                	test   %eax,%eax
  401148:	75 1c                	jne    401166 <initialize_target+0x12c>
  40114a:	48 89 e2             	mov    %rsp,%rdx
  40114d:	be c0 30 40 00       	mov    $0x4030c0,%esi
  401152:	bf 01 00 00 00       	mov    $0x1,%edi
  401157:	e8 c4 fc ff ff       	callq  400e20 <__printf_chk@plt>
  40115c:	bf 08 00 00 00       	mov    $0x8,%edi
  401161:	e8 0a fd ff ff       	callq  400e70 <exit@plt>
  401166:	48 8d bc 24 00 01 00 	lea    0x100(%rsp),%rdi
  40116d:	00 
  40116e:	e8 e8 1a 00 00       	callq  402c5b <init_driver>
  401173:	85 c0                	test   %eax,%eax
  401175:	79 26                	jns    40119d <initialize_target+0x163>
  401177:	48 8d 94 24 00 01 00 	lea    0x100(%rsp),%rdx
  40117e:	00 
  40117f:	be 00 31 40 00       	mov    $0x403100,%esi
  401184:	bf 01 00 00 00       	mov    $0x1,%edi
  401189:	b8 00 00 00 00       	mov    $0x0,%eax
  40118e:	e8 8d fc ff ff       	callq  400e20 <__printf_chk@plt>
  401193:	bf 08 00 00 00       	mov    $0x8,%edi
  401198:	e8 d3 fc ff ff       	callq  400e70 <exit@plt>
  40119d:	48 8b 84 24 08 21 00 	mov    0x2108(%rsp),%rax
  4011a4:	00 
  4011a5:	64 48 33 04 25 28 00 	xor    %fs:0x28,%rax
  4011ac:	00 00 
  4011ae:	74 05                	je     4011b5 <initialize_target+0x17b>
  4011b0:	e8 4b fb ff ff       	callq  400d00 <__stack_chk_fail@plt>
  4011b5:	48 81 c4 18 21 00 00 	add    $0x2118,%rsp
  4011bc:	5b                   	pop    %rbx
  4011bd:	5d                   	pop    %rbp
  4011be:	c3                   	retq   

00000000004011bf <main>:
  4011bf:	41 56                	push   %r14
  4011c1:	41 55                	push   %r13
  4011c3:	41 54                	push   %r12
  4011c5:	55                   	push   %rbp
  4011c6:	53                   	push   %rbx
  4011c7:	41 89 fc             	mov    %edi,%r12d
  4011ca:	48 89 f3             	mov    %rsi,%rbx
  4011cd:	be ce 1f 40 00       	mov    $0x401fce,%esi
  4011d2:	bf 0b 00 00 00       	mov    $0xb,%edi
  4011d7:	e8 94 fb ff ff       	callq  400d70 <signal@plt>
  4011dc:	be 80 1f 40 00       	mov    $0x401f80,%esi
  4011e1:	bf 07 00 00 00       	mov    $0x7,%edi
  4011e6:	e8 85 fb ff ff       	callq  400d70 <signal@plt>
  4011eb:	be 1c 20 40 00       	mov    $0x40201c,%esi
  4011f0:	bf 04 00 00 00       	mov    $0x4,%edi
  4011f5:	e8 76 fb ff ff       	callq  400d70 <signal@plt>
  4011fa:	83 3d 27 43 20 00 00 	cmpl   $0x0,0x204327(%rip)        # 605528 <is_checker>
  401201:	74 20                	je     401223 <main+0x64>
  401203:	be 6a 20 40 00       	mov    $0x40206a,%esi
  401208:	bf 0e 00 00 00       	mov    $0xe,%edi
  40120d:	e8 5e fb ff ff       	callq  400d70 <signal@plt>
  401212:	bf 05 00 00 00       	mov    $0x5,%edi
  401217:	e8 14 fb ff ff       	callq  400d30 <alarm@plt>
  40121c:	bd ca 31 40 00       	mov    $0x4031ca,%ebp
  401221:	eb 05                	jmp    401228 <main+0x69>
  401223:	bd c5 31 40 00       	mov    $0x4031c5,%ebp
  401228:	48 8b 05 91 42 20 00 	mov    0x204291(%rip),%rax        # 6054c0 <stdin@@GLIBC_2.2.5>
  40122f:	48 89 05 da 42 20 00 	mov    %rax,0x2042da(%rip)        # 605510 <infile>
  401236:	41 bd 00 00 00 00    	mov    $0x0,%r13d
  40123c:	41 be 00 00 00 00    	mov    $0x0,%r14d
  401242:	e9 c6 00 00 00       	jmpq   40130d <main+0x14e>
  401247:	83 e8 61             	sub    $0x61,%eax
  40124a:	3c 10                	cmp    $0x10,%al
  40124c:	0f 87 9c 00 00 00    	ja     4012ee <main+0x12f>
  401252:	0f b6 c0             	movzbl %al,%eax
  401255:	ff 24 c5 10 32 40 00 	jmpq   *0x403210(,%rax,8)
  40125c:	48 8b 3b             	mov    (%rbx),%rdi
  40125f:	e8 4c fd ff ff       	callq  400fb0 <usage>
  401264:	be 7d 34 40 00       	mov    $0x40347d,%esi
  401269:	48 8b 3d 70 42 20 00 	mov    0x204270(%rip),%rdi        # 6054e0 <optarg@@GLIBC_2.2.5>
  401270:	e8 bb fb ff ff       	callq  400e30 <fopen@plt>
  401275:	48 89 05 94 42 20 00 	mov    %rax,0x204294(%rip)        # 605510 <infile>
  40127c:	48 85 c0             	test   %rax,%rax
  40127f:	0f 85 88 00 00 00    	jne    40130d <main+0x14e>
  401285:	48 8b 0d 54 42 20 00 	mov    0x204254(%rip),%rcx        # 6054e0 <optarg@@GLIBC_2.2.5>
  40128c:	ba d2 31 40 00       	mov    $0x4031d2,%edx
  401291:	be 01 00 00 00       	mov    $0x1,%esi
  401296:	48 8b 3d 4b 42 20 00 	mov    0x20424b(%rip),%rdi        # 6054e8 <stderr@@GLIBC_2.2.5>
  40129d:	e8 ee fb ff ff       	callq  400e90 <__fprintf_chk@plt>
  4012a2:	b8 01 00 00 00       	mov    $0x1,%eax
  4012a7:	e9 e4 00 00 00       	jmpq   401390 <main+0x1d1>
  4012ac:	ba 10 00 00 00       	mov    $0x10,%edx
  4012b1:	be 00 00 00 00       	mov    $0x0,%esi
  4012b6:	48 8b 3d 23 42 20 00 	mov    0x204223(%rip),%rdi        # 6054e0 <optarg@@GLIBC_2.2.5>
  4012bd:	e8 8e fb ff ff       	callq  400e50 <strtoul@plt>
  4012c2:	41 89 c6             	mov    %eax,%r14d
  4012c5:	eb 46                	jmp    40130d <main+0x14e>
  4012c7:	ba 0a 00 00 00       	mov    $0xa,%edx
  4012cc:	be 00 00 00 00       	mov    $0x0,%esi
  4012d1:	48 8b 3d 08 42 20 00 	mov    0x204208(%rip),%rdi        # 6054e0 <optarg@@GLIBC_2.2.5>
  4012d8:	e8 d3 fa ff ff       	callq  400db0 <strtol@plt>
  4012dd:	41 89 c5             	mov    %eax,%r13d
  4012e0:	eb 2b                	jmp    40130d <main+0x14e>
  4012e2:	c7 05 bc 41 20 00 00 	movl   $0x0,0x2041bc(%rip)        # 6054a8 <notify>
  4012e9:	00 00 00 
  4012ec:	eb 1f                	jmp    40130d <main+0x14e>
  4012ee:	0f be d2             	movsbl %dl,%edx
  4012f1:	be ef 31 40 00       	mov    $0x4031ef,%esi
  4012f6:	bf 01 00 00 00       	mov    $0x1,%edi
  4012fb:	b8 00 00 00 00       	mov    $0x0,%eax
  401300:	e8 1b fb ff ff       	callq  400e20 <__printf_chk@plt>
  401305:	48 8b 3b             	mov    (%rbx),%rdi
  401308:	e8 a3 fc ff ff       	callq  400fb0 <usage>
  40130d:	48 89 ea             	mov    %rbp,%rdx
  401310:	48 89 de             	mov    %rbx,%rsi
  401313:	44 89 e7             	mov    %r12d,%edi
  401316:	e8 25 fb ff ff       	callq  400e40 <getopt@plt>
  40131b:	89 c2                	mov    %eax,%edx
  40131d:	3c ff                	cmp    $0xff,%al
  40131f:	0f 85 22 ff ff ff    	jne    401247 <main+0x88>
  401325:	be 01 00 00 00       	mov    $0x1,%esi
  40132a:	44 89 ef             	mov    %r13d,%edi
  40132d:	e8 08 fd ff ff       	callq  40103a <initialize_target>
  401332:	83 3d ef 41 20 00 00 	cmpl   $0x0,0x2041ef(%rip)        # 605528 <is_checker>
  401339:	74 2a                	je     401365 <main+0x1a6>
  40133b:	44 3b 35 de 41 20 00 	cmp    0x2041de(%rip),%r14d        # 605520 <authkey>
  401342:	74 21                	je     401365 <main+0x1a6>
  401344:	44 89 f2             	mov    %r14d,%edx
  401347:	be 28 31 40 00       	mov    $0x403128,%esi
  40134c:	bf 01 00 00 00       	mov    $0x1,%edi
  401351:	b8 00 00 00 00       	mov    $0x0,%eax
  401356:	e8 c5 fa ff ff       	callq  400e20 <__printf_chk@plt>
  40135b:	b8 00 00 00 00       	mov    $0x0,%eax
  401360:	e8 a6 08 00 00       	callq  401c0b <check_fail>
  401365:	8b 15 b9 41 20 00    	mov    0x2041b9(%rip),%edx        # 605524 <cookie>
  40136b:	be 02 32 40 00       	mov    $0x403202,%esi
  401370:	bf 01 00 00 00       	mov    $0x1,%edi
  401375:	b8 00 00 00 00       	mov    $0x0,%eax
  40137a:	e8 a1 fa ff ff       	callq  400e20 <__printf_chk@plt>
  40137f:	48 8b 3d 1a 41 20 00 	mov    0x20411a(%rip),%rdi        # 6054a0 <buf_offset>
  401386:	e8 32 0d 00 00       	callq  4020bd <launch>
  40138b:	b8 00 00 00 00       	mov    $0x0,%eax
  401390:	5b                   	pop    %rbx
  401391:	5d                   	pop    %rbp
  401392:	41 5c                	pop    %r12
  401394:	41 5d                	pop    %r13
  401396:	41 5e                	pop    %r14
  401398:	c3                   	retq   

0000000000401399 <scramble>:
  401399:	b8 00 00 00 00       	mov    $0x0,%eax
  40139e:	eb 11                	jmp    4013b1 <scramble+0x18>
  4013a0:	69 c8 fc 9d 00 00    	imul   $0x9dfc,%eax,%ecx
  4013a6:	01 f9                	add    %edi,%ecx
  4013a8:	89 c2                	mov    %eax,%edx
  4013aa:	89 4c 94 c8          	mov    %ecx,-0x38(%rsp,%rdx,4)
  4013ae:	83 c0 01             	add    $0x1,%eax
  4013b1:	83 f8 09             	cmp    $0x9,%eax
  4013b4:	76 ea                	jbe    4013a0 <scramble+0x7>
  4013b6:	8b 44 24 e8          	mov    -0x18(%rsp),%eax
  4013ba:	69 c0 ed ae 00 00    	imul   $0xaeed,%eax,%eax
  4013c0:	89 44 24 e8          	mov    %eax,-0x18(%rsp)
  4013c4:	8b 44 24 c8          	mov    -0x38(%rsp),%eax
  4013c8:	69 c0 35 c4 00 00    	imul   $0xc435,%eax,%eax
  4013ce:	89 44 24 c8          	mov    %eax,-0x38(%rsp)
  4013d2:	8b 44 24 e0          	mov    -0x20(%rsp),%eax
  4013d6:	69 c0 f4 2a 00 00    	imul   $0x2af4,%eax,%eax
  4013dc:	89 44 24 e0          	mov    %eax,-0x20(%rsp)
  4013e0:	8b 44 24 d0          	mov    -0x30(%rsp),%eax
  4013e4:	69 c0 7d 1b 00 00    	imul   $0x1b7d,%eax,%eax
  4013ea:	89 44 24 d0          	mov    %eax,-0x30(%rsp)
  4013ee:	8b 44 24 ec          	mov    -0x14(%rsp),%eax
  4013f2:	69 c0 83 38 00 00    	imul   $0x3883,%eax,%eax
  4013f8:	89 44 24 ec          	mov    %eax,-0x14(%rsp)
  4013fc:	8b 44 24 d0          	mov    -0x30(%rsp),%eax
  401400:	69 c0 08 2b 00 00    	imul   $0x2b08,%eax,%eax
  401406:	89 44 24 d0          	mov    %eax,-0x30(%rsp)
  40140a:	8b 44 24 e4          	mov    -0x1c(%rsp),%eax
  40140e:	69 c0 da 63 00 00    	imul   $0x63da,%eax,%eax
  401414:	89 44 24 e4          	mov    %eax,-0x1c(%rsp)
  401418:	8b 44 24 dc          	mov    -0x24(%rsp),%eax
  40141c:	69 c0 57 5d 00 00    	imul   $0x5d57,%eax,%eax
  401422:	89 44 24 dc          	mov    %eax,-0x24(%rsp)
  401426:	8b 44 24 cc          	mov    -0x34(%rsp),%eax
  40142a:	69 c0 c6 7e 00 00    	imul   $0x7ec6,%eax,%eax
  401430:	89 44 24 cc          	mov    %eax,-0x34(%rsp)
  401434:	8b 44 24 c8          	mov    -0x38(%rsp),%eax
  401438:	69 c0 3c d8 00 00    	imul   $0xd83c,%eax,%eax
  40143e:	89 44 24 c8          	mov    %eax,-0x38(%rsp)
  401442:	8b 44 24 dc          	mov    -0x24(%rsp),%eax
  401446:	69 c0 d9 90 00 00    	imul   $0x90d9,%eax,%eax
  40144c:	89 44 24 dc          	mov    %eax,-0x24(%rsp)
  401450:	8b 44 24 c8          	mov    -0x38(%rsp),%eax
  401454:	69 c0 dc 09 00 00    	imul   $0x9dc,%eax,%eax
  40145a:	89 44 24 c8          	mov    %eax,-0x38(%rsp)
  40145e:	8b 44 24 d4          	mov    -0x2c(%rsp),%eax
  401462:	69 c0 f6 bc 00 00    	imul   $0xbcf6,%eax,%eax
  401468:	89 44 24 d4          	mov    %eax,-0x2c(%rsp)
  40146c:	8b 44 24 d8          	mov    -0x28(%rsp),%eax
  401470:	69 c0 e5 88 00 00    	imul   $0x88e5,%eax,%eax
  401476:	89 44 24 d8          	mov    %eax,-0x28(%rsp)
  40147a:	8b 44 24 e4          	mov    -0x1c(%rsp),%eax
  40147e:	69 c0 c7 71 00 00    	imul   $0x71c7,%eax,%eax
  401484:	89 44 24 e4          	mov    %eax,-0x1c(%rsp)
  401488:	8b 44 24 e8          	mov    -0x18(%rsp),%eax
  40148c:	69 c0 25 16 00 00    	imul   $0x1625,%eax,%eax
  401492:	89 44 24 e8          	mov    %eax,-0x18(%rsp)
  401496:	8b 44 24 e8          	mov    -0x18(%rsp),%eax
  40149a:	69 c0 66 44 00 00    	imul   $0x4466,%eax,%eax
  4014a0:	89 44 24 e8          	mov    %eax,-0x18(%rsp)
  4014a4:	8b 44 24 d8          	mov    -0x28(%rsp),%eax
  4014a8:	69 c0 8c 13 00 00    	imul   $0x138c,%eax,%eax
  4014ae:	89 44 24 d8          	mov    %eax,-0x28(%rsp)
  4014b2:	8b 44 24 d4          	mov    -0x2c(%rsp),%eax
  4014b6:	69 c0 f0 43 00 00    	imul   $0x43f0,%eax,%eax
  4014bc:	89 44 24 d4          	mov    %eax,-0x2c(%rsp)
  4014c0:	8b 44 24 dc          	mov    -0x24(%rsp),%eax
  4014c4:	69 c0 2d 87 00 00    	imul   $0x872d,%eax,%eax
  4014ca:	89 44 24 dc          	mov    %eax,-0x24(%rsp)
  4014ce:	8b 44 24 cc          	mov    -0x34(%rsp),%eax
  4014d2:	69 c0 10 a2 00 00    	imul   $0xa210,%eax,%eax
  4014d8:	89 44 24 cc          	mov    %eax,-0x34(%rsp)
  4014dc:	8b 44 24 d0          	mov    -0x30(%rsp),%eax
  4014e0:	69 c0 0b bc 00 00    	imul   $0xbc0b,%eax,%eax
  4014e6:	89 44 24 d0          	mov    %eax,-0x30(%rsp)
  4014ea:	8b 44 24 e8          	mov    -0x18(%rsp),%eax
  4014ee:	69 c0 ae 55 00 00    	imul   $0x55ae,%eax,%eax
  4014f4:	89 44 24 e8          	mov    %eax,-0x18(%rsp)
  4014f8:	8b 44 24 c8          	mov    -0x38(%rsp),%eax
  4014fc:	69 c0 f8 e6 00 00    	imul   $0xe6f8,%eax,%eax
  401502:	89 44 24 c8          	mov    %eax,-0x38(%rsp)
  401506:	8b 44 24 d0          	mov    -0x30(%rsp),%eax
  40150a:	69 c0 85 5e 00 00    	imul   $0x5e85,%eax,%eax
  401510:	89 44 24 d0          	mov    %eax,-0x30(%rsp)
  401514:	8b 44 24 e8          	mov    -0x18(%rsp),%eax
  401518:	69 c0 68 54 00 00    	imul   $0x5468,%eax,%eax
  40151e:	89 44 24 e8          	mov    %eax,-0x18(%rsp)
  401522:	8b 44 24 dc          	mov    -0x24(%rsp),%eax
  401526:	69 c0 7b 62 00 00    	imul   $0x627b,%eax,%eax
  40152c:	89 44 24 dc          	mov    %eax,-0x24(%rsp)
  401530:	8b 44 24 dc          	mov    -0x24(%rsp),%eax
  401534:	69 c0 51 a9 00 00    	imul   $0xa951,%eax,%eax
  40153a:	89 44 24 dc          	mov    %eax,-0x24(%rsp)
  40153e:	8b 44 24 c8          	mov    -0x38(%rsp),%eax
  401542:	69 c0 e2 ae 00 00    	imul   $0xaee2,%eax,%eax
  401548:	89 44 24 c8          	mov    %eax,-0x38(%rsp)
  40154c:	8b 44 24 dc          	mov    -0x24(%rsp),%eax
  401550:	69 c0 9a 97 00 00    	imul   $0x979a,%eax,%eax
  401556:	89 44 24 dc          	mov    %eax,-0x24(%rsp)
  40155a:	8b 44 24 d4          	mov    -0x2c(%rsp),%eax
  40155e:	69 c0 c3 8b 00 00    	imul   $0x8bc3,%eax,%eax
  401564:	89 44 24 d4          	mov    %eax,-0x2c(%rsp)
  401568:	8b 44 24 dc          	mov    -0x24(%rsp),%eax
  40156c:	69 c0 5d 41 00 00    	imul   $0x415d,%eax,%eax
  401572:	89 44 24 dc          	mov    %eax,-0x24(%rsp)
  401576:	8b 44 24 d8          	mov    -0x28(%rsp),%eax
  40157a:	69 c0 19 88 00 00    	imul   $0x8819,%eax,%eax
  401580:	89 44 24 d8          	mov    %eax,-0x28(%rsp)
  401584:	8b 44 24 d0          	mov    -0x30(%rsp),%eax
  401588:	69 c0 84 3f 00 00    	imul   $0x3f84,%eax,%eax
  40158e:	89 44 24 d0          	mov    %eax,-0x30(%rsp)
  401592:	8b 44 24 d4          	mov    -0x2c(%rsp),%eax
  401596:	69 c0 f3 83 00 00    	imul   $0x83f3,%eax,%eax
  40159c:	89 44 24 d4          	mov    %eax,-0x2c(%rsp)
  4015a0:	8b 44 24 d8          	mov    -0x28(%rsp),%eax
  4015a4:	69 c0 7d 48 00 00    	imul   $0x487d,%eax,%eax
  4015aa:	89 44 24 d8          	mov    %eax,-0x28(%rsp)
  4015ae:	8b 44 24 dc          	mov    -0x24(%rsp),%eax
  4015b2:	69 c0 e6 78 00 00    	imul   $0x78e6,%eax,%eax
  4015b8:	89 44 24 dc          	mov    %eax,-0x24(%rsp)
  4015bc:	8b 44 24 d8          	mov    -0x28(%rsp),%eax
  4015c0:	69 c0 ee 2b 00 00    	imul   $0x2bee,%eax,%eax
  4015c6:	89 44 24 d8          	mov    %eax,-0x28(%rsp)
  4015ca:	8b 44 24 e0          	mov    -0x20(%rsp),%eax
  4015ce:	69 c0 eb 1d 00 00    	imul   $0x1deb,%eax,%eax
  4015d4:	89 44 24 e0          	mov    %eax,-0x20(%rsp)
  4015d8:	8b 44 24 e4          	mov    -0x1c(%rsp),%eax
  4015dc:	69 c0 08 a3 00 00    	imul   $0xa308,%eax,%eax
  4015e2:	89 44 24 e4          	mov    %eax,-0x1c(%rsp)
  4015e6:	8b 44 24 e0          	mov    -0x20(%rsp),%eax
  4015ea:	69 c0 1a d2 00 00    	imul   $0xd21a,%eax,%eax
  4015f0:	89 44 24 e0          	mov    %eax,-0x20(%rsp)
  4015f4:	8b 44 24 ec          	mov    -0x14(%rsp),%eax
  4015f8:	69 c0 cf 6b 00 00    	imul   $0x6bcf,%eax,%eax
  4015fe:	89 44 24 ec          	mov    %eax,-0x14(%rsp)
  401602:	8b 44 24 e0          	mov    -0x20(%rsp),%eax
  401606:	69 c0 b5 55 00 00    	imul   $0x55b5,%eax,%eax
  40160c:	89 44 24 e0          	mov    %eax,-0x20(%rsp)
  401610:	8b 44 24 ec          	mov    -0x14(%rsp),%eax
  401614:	69 c0 07 54 00 00    	imul   $0x5407,%eax,%eax
  40161a:	89 44 24 ec          	mov    %eax,-0x14(%rsp)
  40161e:	8b 44 24 e4          	mov    -0x1c(%rsp),%eax
  401622:	69 c0 56 47 00 00    	imul   $0x4756,%eax,%eax
  401628:	89 44 24 e4          	mov    %eax,-0x1c(%rsp)
  40162c:	8b 44 24 d8          	mov    -0x28(%rsp),%eax
  401630:	69 c0 40 25 00 00    	imul   $0x2540,%eax,%eax
  401636:	89 44 24 d8          	mov    %eax,-0x28(%rsp)
  40163a:	8b 44 24 d0          	mov    -0x30(%rsp),%eax
  40163e:	69 c0 60 99 00 00    	imul   $0x9960,%eax,%eax
  401644:	89 44 24 d0          	mov    %eax,-0x30(%rsp)
  401648:	8b 44 24 dc          	mov    -0x24(%rsp),%eax
  40164c:	69 c0 43 a3 00 00    	imul   $0xa343,%eax,%eax
  401652:	89 44 24 dc          	mov    %eax,-0x24(%rsp)
  401656:	8b 44 24 dc          	mov    -0x24(%rsp),%eax
  40165a:	69 c0 88 bb 00 00    	imul   $0xbb88,%eax,%eax
  401660:	89 44 24 dc          	mov    %eax,-0x24(%rsp)
  401664:	8b 44 24 e4          	mov    -0x1c(%rsp),%eax
  401668:	69 c0 83 ed 00 00    	imul   $0xed83,%eax,%eax
  40166e:	89 44 24 e4          	mov    %eax,-0x1c(%rsp)
  401672:	8b 44 24 e4          	mov    -0x1c(%rsp),%eax
  401676:	69 c0 78 a9 00 00    	imul   $0xa978,%eax,%eax
  40167c:	89 44 24 e4          	mov    %eax,-0x1c(%rsp)
  401680:	8b 44 24 d0          	mov    -0x30(%rsp),%eax
  401684:	69 c0 7f 65 00 00    	imul   $0x657f,%eax,%eax
  40168a:	89 44 24 d0          	mov    %eax,-0x30(%rsp)
  40168e:	8b 44 24 c8          	mov    -0x38(%rsp),%eax
  401692:	69 c0 8a 3a 00 00    	imul   $0x3a8a,%eax,%eax
  401698:	89 44 24 c8          	mov    %eax,-0x38(%rsp)
  40169c:	8b 44 24 ec          	mov    -0x14(%rsp),%eax
  4016a0:	69 c0 f2 f0 00 00    	imul   $0xf0f2,%eax,%eax
  4016a6:	89 44 24 ec          	mov    %eax,-0x14(%rsp)
  4016aa:	8b 44 24 d0          	mov    -0x30(%rsp),%eax
  4016ae:	69 c0 54 a4 00 00    	imul   $0xa454,%eax,%eax
  4016b4:	89 44 24 d0          	mov    %eax,-0x30(%rsp)
  4016b8:	8b 44 24 cc          	mov    -0x34(%rsp),%eax
  4016bc:	69 c0 e6 d4 00 00    	imul   $0xd4e6,%eax,%eax
  4016c2:	89 44 24 cc          	mov    %eax,-0x34(%rsp)
  4016c6:	8b 44 24 e0          	mov    -0x20(%rsp),%eax
  4016ca:	69 c0 6b 8b 00 00    	imul   $0x8b6b,%eax,%eax
  4016d0:	89 44 24 e0          	mov    %eax,-0x20(%rsp)
  4016d4:	8b 44 24 c8          	mov    -0x38(%rsp),%eax
  4016d8:	69 c0 04 ab 00 00    	imul   $0xab04,%eax,%eax
  4016de:	89 44 24 c8          	mov    %eax,-0x38(%rsp)
  4016e2:	8b 44 24 e4          	mov    -0x1c(%rsp),%eax
  4016e6:	69 c0 d6 55 00 00    	imul   $0x55d6,%eax,%eax
  4016ec:	89 44 24 e4          	mov    %eax,-0x1c(%rsp)
  4016f0:	8b 44 24 cc          	mov    -0x34(%rsp),%eax
  4016f4:	69 c0 b8 e5 00 00    	imul   $0xe5b8,%eax,%eax
  4016fa:	89 44 24 cc          	mov    %eax,-0x34(%rsp)
  4016fe:	8b 44 24 c8          	mov    -0x38(%rsp),%eax
  401702:	69 c0 ac ea 00 00    	imul   $0xeaac,%eax,%eax
  401708:	89 44 24 c8          	mov    %eax,-0x38(%rsp)
  40170c:	8b 44 24 e8          	mov    -0x18(%rsp),%eax
  401710:	69 c0 47 70 00 00    	imul   $0x7047,%eax,%eax
  401716:	89 44 24 e8          	mov    %eax,-0x18(%rsp)
  40171a:	8b 44 24 c8          	mov    -0x38(%rsp),%eax
  40171e:	69 c0 96 71 00 00    	imul   $0x7196,%eax,%eax
  401724:	89 44 24 c8          	mov    %eax,-0x38(%rsp)
  401728:	8b 44 24 d0          	mov    -0x30(%rsp),%eax
  40172c:	69 c0 86 a5 00 00    	imul   $0xa586,%eax,%eax
  401732:	89 44 24 d0          	mov    %eax,-0x30(%rsp)
  401736:	8b 44 24 dc          	mov    -0x24(%rsp),%eax
  40173a:	69 c0 52 f6 00 00    	imul   $0xf652,%eax,%eax
  401740:	89 44 24 dc          	mov    %eax,-0x24(%rsp)
  401744:	8b 44 24 d8          	mov    -0x28(%rsp),%eax
  401748:	69 c0 9a 6c 00 00    	imul   $0x6c9a,%eax,%eax
  40174e:	89 44 24 d8          	mov    %eax,-0x28(%rsp)
  401752:	8b 44 24 dc          	mov    -0x24(%rsp),%eax
  401756:	69 c0 0a c9 00 00    	imul   $0xc90a,%eax,%eax
  40175c:	89 44 24 dc          	mov    %eax,-0x24(%rsp)
  401760:	8b 44 24 e0          	mov    -0x20(%rsp),%eax
  401764:	69 c0 29 c2 00 00    	imul   $0xc229,%eax,%eax
  40176a:	89 44 24 e0          	mov    %eax,-0x20(%rsp)
  40176e:	8b 44 24 e4          	mov    -0x1c(%rsp),%eax
  401772:	69 c0 87 63 00 00    	imul   $0x6387,%eax,%eax
  401778:	89 44 24 e4          	mov    %eax,-0x1c(%rsp)
  40177c:	8b 44 24 e0          	mov    -0x20(%rsp),%eax
  401780:	69 c0 0a 5c 00 00    	imul   $0x5c0a,%eax,%eax
  401786:	89 44 24 e0          	mov    %eax,-0x20(%rsp)
  40178a:	8b 44 24 e0          	mov    -0x20(%rsp),%eax
  40178e:	69 c0 16 47 00 00    	imul   $0x4716,%eax,%eax
  401794:	89 44 24 e0          	mov    %eax,-0x20(%rsp)
  401798:	8b 44 24 ec          	mov    -0x14(%rsp),%eax
  40179c:	69 c0 4b 7e 00 00    	imul   $0x7e4b,%eax,%eax
  4017a2:	89 44 24 ec          	mov    %eax,-0x14(%rsp)
  4017a6:	8b 44 24 cc          	mov    -0x34(%rsp),%eax
  4017aa:	69 c0 a6 71 00 00    	imul   $0x71a6,%eax,%eax
  4017b0:	89 44 24 cc          	mov    %eax,-0x34(%rsp)
  4017b4:	8b 44 24 ec          	mov    -0x14(%rsp),%eax
  4017b8:	69 c0 a1 b3 00 00    	imul   $0xb3a1,%eax,%eax
  4017be:	89 44 24 ec          	mov    %eax,-0x14(%rsp)
  4017c2:	8b 44 24 dc          	mov    -0x24(%rsp),%eax
  4017c6:	69 c0 5b 28 00 00    	imul   $0x285b,%eax,%eax
  4017cc:	89 44 24 dc          	mov    %eax,-0x24(%rsp)
  4017d0:	8b 44 24 dc          	mov    -0x24(%rsp),%eax
  4017d4:	69 c0 aa 64 00 00    	imul   $0x64aa,%eax,%eax
  4017da:	89 44 24 dc          	mov    %eax,-0x24(%rsp)
  4017de:	8b 44 24 ec          	mov    -0x14(%rsp),%eax
  4017e2:	69 c0 52 a4 00 00    	imul   $0xa452,%eax,%eax
  4017e8:	89 44 24 ec          	mov    %eax,-0x14(%rsp)
  4017ec:	8b 44 24 d8          	mov    -0x28(%rsp),%eax
  4017f0:	69 c0 14 97 00 00    	imul   $0x9714,%eax,%eax
  4017f6:	89 44 24 d8          	mov    %eax,-0x28(%rsp)
  4017fa:	8b 44 24 c8          	mov    -0x38(%rsp),%eax
  4017fe:	69 c0 7b e8 00 00    	imul   $0xe87b,%eax,%eax
  401804:	89 44 24 c8          	mov    %eax,-0x38(%rsp)
  401808:	8b 44 24 e4          	mov    -0x1c(%rsp),%eax
  40180c:	69 c0 07 43 00 00    	imul   $0x4307,%eax,%eax
  401812:	89 44 24 e4          	mov    %eax,-0x1c(%rsp)
  401816:	8b 44 24 cc          	mov    -0x34(%rsp),%eax
  40181a:	69 c0 a3 cf 00 00    	imul   $0xcfa3,%eax,%eax
  401820:	89 44 24 cc          	mov    %eax,-0x34(%rsp)
  401824:	8b 44 24 c8          	mov    -0x38(%rsp),%eax
  401828:	69 c0 98 7e 00 00    	imul   $0x7e98,%eax,%eax
  40182e:	89 44 24 c8          	mov    %eax,-0x38(%rsp)
  401832:	8b 44 24 cc          	mov    -0x34(%rsp),%eax
  401836:	69 c0 ba 81 00 00    	imul   $0x81ba,%eax,%eax
  40183c:	89 44 24 cc          	mov    %eax,-0x34(%rsp)
  401840:	8b 44 24 d8          	mov    -0x28(%rsp),%eax
  401844:	69 c0 42 9c 00 00    	imul   $0x9c42,%eax,%eax
  40184a:	89 44 24 d8          	mov    %eax,-0x28(%rsp)
  40184e:	8b 44 24 e0          	mov    -0x20(%rsp),%eax
  401852:	69 c0 dc f3 00 00    	imul   $0xf3dc,%eax,%eax
  401858:	89 44 24 e0          	mov    %eax,-0x20(%rsp)
  40185c:	8b 44 24 c8          	mov    -0x38(%rsp),%eax
  401860:	69 c0 1e ed 00 00    	imul   $0xed1e,%eax,%eax
  401866:	89 44 24 c8          	mov    %eax,-0x38(%rsp)
  40186a:	8b 44 24 d4          	mov    -0x2c(%rsp),%eax
  40186e:	69 c0 3d 29 00 00    	imul   $0x293d,%eax,%eax
  401874:	89 44 24 d4          	mov    %eax,-0x2c(%rsp)
  401878:	ba 00 00 00 00       	mov    $0x0,%edx
  40187d:	b8 00 00 00 00       	mov    $0x0,%eax
  401882:	eb 0b                	jmp    40188f <scramble+0x4f6>
  401884:	89 d1                	mov    %edx,%ecx
  401886:	8b 4c 8c c8          	mov    -0x38(%rsp,%rcx,4),%ecx
  40188a:	01 c8                	add    %ecx,%eax
  40188c:	83 c2 01             	add    $0x1,%edx
  40188f:	83 fa 09             	cmp    $0x9,%edx
  401892:	76 f0                	jbe    401884 <scramble+0x4eb>
  401894:	f3 c3                	repz retq 

0000000000401896 <getbuf>:
  401896:	48 83 ec 18          	sub    $0x18,%rsp
  40189a:	48 89 e7             	mov    %rsp,%rdi
  40189d:	e8 9e 03 00 00       	callq  401c40 <Gets>
  4018a2:	b8 01 00 00 00       	mov    $0x1,%eax
  4018a7:	48 83 c4 18          	add    $0x18,%rsp
  4018ab:	c3                   	retq   

00000000004018ac <touch1>:
  4018ac:	48 83 ec 08          	sub    $0x8,%rsp
  4018b0:	c7 05 62 3c 20 00 01 	movl   $0x1,0x203c62(%rip)        # 60551c <vlevel>
  4018b7:	00 00 00 
  4018ba:	bf d6 32 40 00       	mov    $0x4032d6,%edi
  4018bf:	e8 1c f4 ff ff       	callq  400ce0 <puts@plt>
  4018c4:	bf 01 00 00 00       	mov    $0x1,%edi
  4018c9:	e8 c8 05 00 00       	callq  401e96 <validate>
  4018ce:	bf 00 00 00 00       	mov    $0x0,%edi
  4018d3:	e8 98 f5 ff ff       	callq  400e70 <exit@plt>

00000000004018d8 <touch2>:
  4018d8:	48 83 ec 08          	sub    $0x8,%rsp
  4018dc:	89 fa                	mov    %edi,%edx
  4018de:	c7 05 34 3c 20 00 02 	movl   $0x2,0x203c34(%rip)        # 60551c <vlevel>
  4018e5:	00 00 00 
  4018e8:	3b 3d 36 3c 20 00    	cmp    0x203c36(%rip),%edi        # 605524 <cookie>
  4018ee:	75 20                	jne    401910 <touch2+0x38>
  4018f0:	be f8 32 40 00       	mov    $0x4032f8,%esi
  4018f5:	bf 01 00 00 00       	mov    $0x1,%edi
  4018fa:	b8 00 00 00 00       	mov    $0x0,%eax
  4018ff:	e8 1c f5 ff ff       	callq  400e20 <__printf_chk@plt>
  401904:	bf 02 00 00 00       	mov    $0x2,%edi
  401909:	e8 88 05 00 00       	callq  401e96 <validate>
  40190e:	eb 1e                	jmp    40192e <touch2+0x56>
  401910:	be 20 33 40 00       	mov    $0x403320,%esi
  401915:	bf 01 00 00 00       	mov    $0x1,%edi
  40191a:	b8 00 00 00 00       	mov    $0x0,%eax
  40191f:	e8 fc f4 ff ff       	callq  400e20 <__printf_chk@plt>
  401924:	bf 02 00 00 00       	mov    $0x2,%edi
  401929:	e8 2a 06 00 00       	callq  401f58 <fail>
  40192e:	bf 00 00 00 00       	mov    $0x0,%edi
  401933:	e8 38 f5 ff ff       	callq  400e70 <exit@plt>

0000000000401938 <hexmatch>:
  401938:	41 54                	push   %r12
  40193a:	55                   	push   %rbp
  40193b:	53                   	push   %rbx
  40193c:	48 83 c4 80          	add    $0xffffffffffffff80,%rsp
  401940:	41 89 fc             	mov    %edi,%r12d
  401943:	48 89 f5             	mov    %rsi,%rbp
  401946:	64 48 8b 04 25 28 00 	mov    %fs:0x28,%rax
  40194d:	00 00 
  40194f:	48 89 44 24 78       	mov    %rax,0x78(%rsp)
  401954:	31 c0                	xor    %eax,%eax
  401956:	e8 85 f4 ff ff       	callq  400de0 <random@plt>
  40195b:	48 89 c1             	mov    %rax,%rcx
  40195e:	48 ba 0b d7 a3 70 3d 	movabs $0xa3d70a3d70a3d70b,%rdx
  401965:	0a d7 a3 
  401968:	48 f7 ea             	imul   %rdx
  40196b:	48 01 ca             	add    %rcx,%rdx
  40196e:	48 c1 fa 06          	sar    $0x6,%rdx
  401972:	48 89 c8             	mov    %rcx,%rax
  401975:	48 c1 f8 3f          	sar    $0x3f,%rax
  401979:	48 29 c2             	sub    %rax,%rdx
  40197c:	48 8d 04 92          	lea    (%rdx,%rdx,4),%rax
  401980:	48 8d 04 80          	lea    (%rax,%rax,4),%rax
  401984:	48 c1 e0 02          	shl    $0x2,%rax
  401988:	48 29 c1             	sub    %rax,%rcx
  40198b:	48 8d 1c 0c          	lea    (%rsp,%rcx,1),%rbx
  40198f:	45 89 e0             	mov    %r12d,%r8d
  401992:	b9 f3 32 40 00       	mov    $0x4032f3,%ecx
  401997:	48 c7 c2 ff ff ff ff 	mov    $0xffffffffffffffff,%rdx
  40199e:	be 01 00 00 00       	mov    $0x1,%esi
  4019a3:	48 89 df             	mov    %rbx,%rdi
  4019a6:	b8 00 00 00 00       	mov    $0x0,%eax
  4019ab:	e8 f0 f4 ff ff       	callq  400ea0 <__sprintf_chk@plt>
  4019b0:	ba 09 00 00 00       	mov    $0x9,%edx
  4019b5:	48 89 de             	mov    %rbx,%rsi
  4019b8:	48 89 ef             	mov    %rbp,%rdi
  4019bb:	e8 00 f3 ff ff       	callq  400cc0 <strncmp@plt>
  4019c0:	85 c0                	test   %eax,%eax
  4019c2:	0f 94 c0             	sete   %al
  4019c5:	0f b6 c0             	movzbl %al,%eax
  4019c8:	48 8b 74 24 78       	mov    0x78(%rsp),%rsi
  4019cd:	64 48 33 34 25 28 00 	xor    %fs:0x28,%rsi
  4019d4:	00 00 
  4019d6:	74 05                	je     4019dd <hexmatch+0xa5>
  4019d8:	e8 23 f3 ff ff       	callq  400d00 <__stack_chk_fail@plt>
  4019dd:	48 83 ec 80          	sub    $0xffffffffffffff80,%rsp
  4019e1:	5b                   	pop    %rbx
  4019e2:	5d                   	pop    %rbp
  4019e3:	41 5c                	pop    %r12
  4019e5:	c3                   	retq   

00000000004019e6 <touch3>:
  4019e6:	53                   	push   %rbx
  4019e7:	48 89 fb             	mov    %rdi,%rbx
  4019ea:	c7 05 28 3b 20 00 03 	movl   $0x3,0x203b28(%rip)        # 60551c <vlevel>
  4019f1:	00 00 00 
  4019f4:	48 89 fe             	mov    %rdi,%rsi
  4019f7:	8b 3d 27 3b 20 00    	mov    0x203b27(%rip),%edi        # 605524 <cookie>
  4019fd:	e8 36 ff ff ff       	callq  401938 <hexmatch>
  401a02:	85 c0                	test   %eax,%eax
  401a04:	74 23                	je     401a29 <touch3+0x43>
  401a06:	48 89 da             	mov    %rbx,%rdx
  401a09:	be 48 33 40 00       	mov    $0x403348,%esi
  401a0e:	bf 01 00 00 00       	mov    $0x1,%edi
  401a13:	b8 00 00 00 00       	mov    $0x0,%eax
  401a18:	e8 03 f4 ff ff       	callq  400e20 <__printf_chk@plt>
  401a1d:	bf 03 00 00 00       	mov    $0x3,%edi
  401a22:	e8 6f 04 00 00       	callq  401e96 <validate>
  401a27:	eb 21                	jmp    401a4a <touch3+0x64>
  401a29:	48 89 da             	mov    %rbx,%rdx
  401a2c:	be 70 33 40 00       	mov    $0x403370,%esi
  401a31:	bf 01 00 00 00       	mov    $0x1,%edi
  401a36:	b8 00 00 00 00       	mov    $0x0,%eax
  401a3b:	e8 e0 f3 ff ff       	callq  400e20 <__printf_chk@plt>
  401a40:	bf 03 00 00 00       	mov    $0x3,%edi
  401a45:	e8 0e 05 00 00       	callq  401f58 <fail>
  401a4a:	bf 00 00 00 00       	mov    $0x0,%edi
  401a4f:	e8 1c f4 ff ff       	callq  400e70 <exit@plt>

0000000000401a54 <test>:
  401a54:	48 83 ec 08          	sub    $0x8,%rsp
  401a58:	b8 00 00 00 00       	mov    $0x0,%eax
  401a5d:	e8 34 fe ff ff       	callq  401896 <getbuf>
  401a62:	89 c2                	mov    %eax,%edx
  401a64:	be 98 33 40 00       	mov    $0x403398,%esi
  401a69:	bf 01 00 00 00       	mov    $0x1,%edi
  401a6e:	b8 00 00 00 00       	mov    $0x0,%eax
  401a73:	e8 a8 f3 ff ff       	callq  400e20 <__printf_chk@plt>
  401a78:	48 83 c4 08          	add    $0x8,%rsp
  401a7c:	c3                   	retq   

0000000000401a7d <start_farm>:
  401a7d:	b8 01 00 00 00       	mov    $0x1,%eax
  401a82:	c3                   	retq   

0000000000401a83 <getval_476>:
  401a83:	b8 11 3f 87 58       	mov    $0x58873f11,%eax
  401a88:	c3                   	retq   

0000000000401a89 <getval_241>:
  401a89:	b8 48 89 c7 c3       	mov    $0xc3c78948,%eax
  401a8e:	c3                   	retq   

0000000000401a8f <getval_474>:
  401a8f:	b8 48 89 c7 c3       	mov    $0xc3c78948,%eax
  401a94:	c3                   	retq   

0000000000401a95 <getval_455>:
  401a95:	b8 dd 58 c1 72       	mov    $0x72c158dd,%eax
  401a9a:	c3                   	retq   

0000000000401a9b <addval_129>:
  401a9b:	8d 87 48 89 c7 c7    	lea    -0x383876b8(%rdi),%eax
  401aa1:	c3                   	retq   

0000000000401aa2 <getval_156>:
  401aa2:	b8 58 90 90 c1       	mov    $0xc1909058,%eax
  401aa7:	c3                   	retq   

0000000000401aa8 <addval_238>:
  401aa8:	8d 87 58 90 90 c3    	lea    -0x3c6f6fa8(%rdi),%eax
  401aae:	c3                   	retq   

0000000000401aaf <setval_306>:
  401aaf:	c7 07 48 89 c7 94    	movl   $0x94c78948,(%rdi)
  401ab5:	c3                   	retq   

0000000000401ab6 <mid_farm>:
  401ab6:	b8 01 00 00 00       	mov    $0x1,%eax
  401abb:	c3                   	retq   

0000000000401abc <add_xy>:
  401abc:	48 8d 04 37          	lea    (%rdi,%rsi,1),%rax
  401ac0:	c3                   	retq   

0000000000401ac1 <setval_283>:
  401ac1:	c7 07 89 c2 a4 c9    	movl   $0xc9a4c289,(%rdi)
  401ac7:	c3                   	retq   

0000000000401ac8 <addval_292>:
  401ac8:	8d 87 99 c2 84 db    	lea    -0x247b3d67(%rdi),%eax
  401ace:	c3                   	retq   

0000000000401acf <setval_435>:
  401acf:	c7 07 8d d1 38 c0    	movl   $0xc038d18d,(%rdi)
  401ad5:	c3                   	retq   

0000000000401ad6 <getval_285>:
  401ad6:	b8 89 ce 18 c0       	mov    $0xc018ce89,%eax
  401adb:	c3                   	retq   

0000000000401adc <addval_339>:
  401adc:	8d 87 48 89 e0 92    	lea    -0x6d1f76b8(%rdi),%eax
  401ae2:	c3                   	retq   

0000000000401ae3 <setval_116>:
  401ae3:	c7 07 89 ce 00 c9    	movl   $0xc900ce89,(%rdi)
  401ae9:	c3                   	retq   

0000000000401aea <setval_438>:
  401aea:	c7 07 a9 d1 c3 9a    	movl   $0x9ac3d1a9,(%rdi)
  401af0:	c3                   	retq   

0000000000401af1 <getval_294>:
  401af1:	b8 48 81 e0 c3       	mov    $0xc3e08148,%eax
  401af6:	c3                   	retq   

0000000000401af7 <setval_248>:
  401af7:	c7 07 89 d1 c7 4e    	movl   $0x4ec7d189,(%rdi)
  401afd:	c3                   	retq   

0000000000401afe <getval_181>:
  401afe:	b8 c8 89 e0 c3       	mov    $0xc3e089c8,%eax
  401b03:	c3                   	retq   

0000000000401b04 <addval_212>:
  401b04:	8d 87 e5 89 d1 c7    	lea    -0x382e761b(%rdi),%eax
  401b0a:	c3                   	retq   

0000000000401b0b <addval_376>:
  401b0b:	8d 87 89 ce 08 d2    	lea    -0x2df73177(%rdi),%eax
  401b11:	c3                   	retq   

0000000000401b12 <getval_284>:
  401b12:	b8 89 d1 28 db       	mov    $0xdb28d189,%eax
  401b17:	c3                   	retq   

0000000000401b18 <addval_106>:
  401b18:	8d 87 71 48 89 e0    	lea    -0x1f76b78f(%rdi),%eax
  401b1e:	c3                   	retq   

0000000000401b1f <setval_232>:
  401b1f:	c7 07 49 89 e0 90    	movl   $0x90e08949,(%rdi)
  401b25:	c3                   	retq   

0000000000401b26 <setval_450>:
  401b26:	c7 07 48 89 e0 94    	movl   $0x94e08948,(%rdi)
  401b2c:	c3                   	retq   

0000000000401b2d <setval_242>:
  401b2d:	c7 07 89 ce 84 c0    	movl   $0xc084ce89,(%rdi)
  401b33:	c3                   	retq   

0000000000401b34 <setval_451>:
  401b34:	c7 07 89 d1 20 db    	movl   $0xdb20d189,(%rdi)
  401b3a:	c3                   	retq   

0000000000401b3b <addval_468>:
  401b3b:	8d 87 89 d1 08 d2    	lea    -0x2df72e77(%rdi),%eax
  401b41:	c3                   	retq   

0000000000401b42 <getval_153>:
  401b42:	b8 48 89 e0 91       	mov    $0x91e08948,%eax
  401b47:	c3                   	retq   

0000000000401b48 <setval_278>:
  401b48:	c7 07 a9 c2 84 c0    	movl   $0xc084c2a9,(%rdi)
  401b4e:	c3                   	retq   

0000000000401b4f <setval_211>:
  401b4f:	c7 07 a9 ce 08 d2    	movl   $0xd208cea9,(%rdi)
  401b55:	c3                   	retq   

0000000000401b56 <setval_166>:
  401b56:	c7 07 a9 ce 84 d2    	movl   $0xd284cea9,(%rdi)
  401b5c:	c3                   	retq   

0000000000401b5d <setval_459>:
  401b5d:	c7 07 a9 d1 20 d2    	movl   $0xd220d1a9,(%rdi)
  401b63:	c3                   	retq   

0000000000401b64 <getval_480>:
  401b64:	b8 89 c2 18 d2       	mov    $0xd218c289,%eax
  401b69:	c3                   	retq   

0000000000401b6a <getval_397>:
  401b6a:	b8 89 ce 00 c0       	mov    $0xc000ce89,%eax
  401b6f:	c3                   	retq   

0000000000401b70 <getval_303>:
  401b70:	b8 2f 89 ce 94       	mov    $0x94ce892f,%eax
  401b75:	c3                   	retq   

0000000000401b76 <addval_204>:
  401b76:	8d 87 89 c2 20 d2    	lea    -0x2ddf3d77(%rdi),%eax
  401b7c:	c3                   	retq   

0000000000401b7d <addval_209>:
  401b7d:	8d 87 89 c2 84 c0    	lea    -0x3f7b3d77(%rdi),%eax
  401b83:	c3                   	retq   

0000000000401b84 <getval_494>:
  401b84:	b8 48 89 e0 90       	mov    $0x90e08948,%eax
  401b89:	c3                   	retq   

0000000000401b8a <getval_326>:
  401b8a:	b8 81 c2 90 c3       	mov    $0xc390c281,%eax
  401b8f:	c3                   	retq   

0000000000401b90 <setval_227>:
  401b90:	c7 07 81 c2 08 c9    	movl   $0xc908c281,(%rdi)
  401b96:	c3                   	retq   

0000000000401b97 <end_farm>:
  401b97:	b8 01 00 00 00       	mov    $0x1,%eax
  401b9c:	c3                   	retq   
  401b9d:	0f 1f 00             	nopl   (%rax)

0000000000401ba0 <save_char>:
  401ba0:	8b 05 9e 45 20 00    	mov    0x20459e(%rip),%eax        # 606144 <gets_cnt>
  401ba6:	3d ff 03 00 00       	cmp    $0x3ff,%eax
  401bab:	7f 49                	jg     401bf6 <save_char+0x56>
  401bad:	8d 14 40             	lea    (%rax,%rax,2),%edx
  401bb0:	89 f9                	mov    %edi,%ecx
  401bb2:	c0 e9 04             	shr    $0x4,%cl
  401bb5:	83 e1 0f             	and    $0xf,%ecx
  401bb8:	0f b6 b1 c0 36 40 00 	movzbl 0x4036c0(%rcx),%esi
  401bbf:	48 63 ca             	movslq %edx,%rcx
  401bc2:	40 88 b1 40 55 60 00 	mov    %sil,0x605540(%rcx)
  401bc9:	8d 4a 01             	lea    0x1(%rdx),%ecx
  401bcc:	83 e7 0f             	and    $0xf,%edi
  401bcf:	0f b6 b7 c0 36 40 00 	movzbl 0x4036c0(%rdi),%esi
  401bd6:	48 63 c9             	movslq %ecx,%rcx
  401bd9:	40 88 b1 40 55 60 00 	mov    %sil,0x605540(%rcx)
  401be0:	83 c2 02             	add    $0x2,%edx
  401be3:	48 63 d2             	movslq %edx,%rdx
  401be6:	c6 82 40 55 60 00 20 	movb   $0x20,0x605540(%rdx)
  401bed:	83 c0 01             	add    $0x1,%eax
  401bf0:	89 05 4e 45 20 00    	mov    %eax,0x20454e(%rip)        # 606144 <gets_cnt>
  401bf6:	f3 c3                	repz retq 

0000000000401bf8 <save_term>:
  401bf8:	8b 05 46 45 20 00    	mov    0x204546(%rip),%eax        # 606144 <gets_cnt>
  401bfe:	8d 04 40             	lea    (%rax,%rax,2),%eax
  401c01:	48 98                	cltq   
  401c03:	c6 80 40 55 60 00 00 	movb   $0x0,0x605540(%rax)
  401c0a:	c3                   	retq   

0000000000401c0b <check_fail>:
  401c0b:	48 83 ec 08          	sub    $0x8,%rsp
  401c0f:	0f be 15 32 45 20 00 	movsbl 0x204532(%rip),%edx        # 606148 <target_prefix>
  401c16:	41 b8 40 55 60 00    	mov    $0x605540,%r8d
  401c1c:	8b 0d f6 38 20 00    	mov    0x2038f6(%rip),%ecx        # 605518 <check_level>
  401c22:	be bb 33 40 00       	mov    $0x4033bb,%esi
  401c27:	bf 01 00 00 00       	mov    $0x1,%edi
  401c2c:	b8 00 00 00 00       	mov    $0x0,%eax
  401c31:	e8 ea f1 ff ff       	callq  400e20 <__printf_chk@plt>
  401c36:	bf 01 00 00 00       	mov    $0x1,%edi
  401c3b:	e8 30 f2 ff ff       	callq  400e70 <exit@plt>

0000000000401c40 <Gets>:
  401c40:	41 54                	push   %r12
  401c42:	55                   	push   %rbp
  401c43:	53                   	push   %rbx
  401c44:	49 89 fc             	mov    %rdi,%r12
  401c47:	c7 05 f3 44 20 00 00 	movl   $0x0,0x2044f3(%rip)        # 606144 <gets_cnt>
  401c4e:	00 00 00 
  401c51:	48 89 fb             	mov    %rdi,%rbx
  401c54:	eb 11                	jmp    401c67 <Gets+0x27>
  401c56:	48 8d 6b 01          	lea    0x1(%rbx),%rbp
  401c5a:	88 03                	mov    %al,(%rbx)
  401c5c:	0f b6 f8             	movzbl %al,%edi
  401c5f:	e8 3c ff ff ff       	callq  401ba0 <save_char>
  401c64:	48 89 eb             	mov    %rbp,%rbx
  401c67:	48 8b 3d a2 38 20 00 	mov    0x2038a2(%rip),%rdi        # 605510 <infile>
  401c6e:	e8 7d f1 ff ff       	callq  400df0 <_IO_getc@plt>
  401c73:	83 f8 ff             	cmp    $0xffffffff,%eax
  401c76:	74 05                	je     401c7d <Gets+0x3d>
  401c78:	83 f8 0a             	cmp    $0xa,%eax
  401c7b:	75 d9                	jne    401c56 <Gets+0x16>
  401c7d:	c6 03 00             	movb   $0x0,(%rbx)
  401c80:	b8 00 00 00 00       	mov    $0x0,%eax
  401c85:	e8 6e ff ff ff       	callq  401bf8 <save_term>
  401c8a:	4c 89 e0             	mov    %r12,%rax
  401c8d:	5b                   	pop    %rbx
  401c8e:	5d                   	pop    %rbp
  401c8f:	41 5c                	pop    %r12
  401c91:	c3                   	retq   

0000000000401c92 <notify_server>:
  401c92:	53                   	push   %rbx
  401c93:	48 81 ec 30 40 00 00 	sub    $0x4030,%rsp
  401c9a:	64 48 8b 04 25 28 00 	mov    %fs:0x28,%rax
  401ca1:	00 00 
  401ca3:	48 89 84 24 28 40 00 	mov    %rax,0x4028(%rsp)
  401caa:	00 
  401cab:	31 c0                	xor    %eax,%eax
  401cad:	83 3d 74 38 20 00 00 	cmpl   $0x0,0x203874(%rip)        # 605528 <is_checker>
  401cb4:	0f 85 bb 01 00 00    	jne    401e75 <notify_server+0x1e3>
  401cba:	89 fb                	mov    %edi,%ebx
  401cbc:	8b 05 82 44 20 00    	mov    0x204482(%rip),%eax        # 606144 <gets_cnt>
  401cc2:	83 c0 64             	add    $0x64,%eax
  401cc5:	3d 00 20 00 00       	cmp    $0x2000,%eax
  401cca:	7e 1e                	jle    401cea <notify_server+0x58>
  401ccc:	be f0 34 40 00       	mov    $0x4034f0,%esi
  401cd1:	bf 01 00 00 00       	mov    $0x1,%edi
  401cd6:	b8 00 00 00 00       	mov    $0x0,%eax
  401cdb:	e8 40 f1 ff ff       	callq  400e20 <__printf_chk@plt>
  401ce0:	bf 01 00 00 00       	mov    $0x1,%edi
  401ce5:	e8 86 f1 ff ff       	callq  400e70 <exit@plt>
  401cea:	0f be 05 57 44 20 00 	movsbl 0x204457(%rip),%eax        # 606148 <target_prefix>
  401cf1:	83 3d b0 37 20 00 00 	cmpl   $0x0,0x2037b0(%rip)        # 6054a8 <notify>
  401cf8:	74 08                	je     401d02 <notify_server+0x70>
  401cfa:	8b 15 20 38 20 00    	mov    0x203820(%rip),%edx        # 605520 <authkey>
  401d00:	eb 05                	jmp    401d07 <notify_server+0x75>
  401d02:	ba ff ff ff ff       	mov    $0xffffffff,%edx
  401d07:	85 db                	test   %ebx,%ebx
  401d09:	74 08                	je     401d13 <notify_server+0x81>
  401d0b:	41 b9 d1 33 40 00    	mov    $0x4033d1,%r9d
  401d11:	eb 06                	jmp    401d19 <notify_server+0x87>
  401d13:	41 b9 d6 33 40 00    	mov    $0x4033d6,%r9d
  401d19:	48 c7 44 24 18 40 55 	movq   $0x605540,0x18(%rsp)
  401d20:	60 00 
  401d22:	89 74 24 10          	mov    %esi,0x10(%rsp)
  401d26:	89 44 24 08          	mov    %eax,0x8(%rsp)
  401d2a:	89 14 24             	mov    %edx,(%rsp)
  401d2d:	44 8b 05 34 34 20 00 	mov    0x203434(%rip),%r8d        # 605168 <target_id>
  401d34:	b9 db 33 40 00       	mov    $0x4033db,%ecx
  401d39:	ba 00 20 00 00       	mov    $0x2000,%edx
  401d3e:	be 01 00 00 00       	mov    $0x1,%esi
  401d43:	48 8d 7c 24 20       	lea    0x20(%rsp),%rdi
  401d48:	b8 00 00 00 00       	mov    $0x0,%eax
  401d4d:	e8 4e f1 ff ff       	callq  400ea0 <__sprintf_chk@plt>
  401d52:	83 3d 4f 37 20 00 00 	cmpl   $0x0,0x20374f(%rip)        # 6054a8 <notify>
  401d59:	0f 84 86 00 00 00    	je     401de5 <notify_server+0x153>
  401d5f:	85 db                	test   %ebx,%ebx
  401d61:	74 70                	je     401dd3 <notify_server+0x141>
  401d63:	4c 8d 8c 24 20 20 00 	lea    0x2020(%rsp),%r9
  401d6a:	00 
  401d6b:	41 b8 00 00 00 00    	mov    $0x0,%r8d
  401d71:	48 8d 4c 24 20       	lea    0x20(%rsp),%rcx
  401d76:	48 8b 15 f3 33 20 00 	mov    0x2033f3(%rip),%rdx        # 605170 <lab>
  401d7d:	48 8b 35 f4 33 20 00 	mov    0x2033f4(%rip),%rsi        # 605178 <course>
  401d84:	48 8b 3d d5 33 20 00 	mov    0x2033d5(%rip),%rdi        # 605160 <user_id>
  401d8b:	e8 be 10 00 00       	callq  402e4e <driver_post>
  401d90:	85 c0                	test   %eax,%eax
  401d92:	79 26                	jns    401dba <notify_server+0x128>
  401d94:	48 8d 94 24 20 20 00 	lea    0x2020(%rsp),%rdx
  401d9b:	00 
  401d9c:	be f7 33 40 00       	mov    $0x4033f7,%esi
  401da1:	bf 01 00 00 00       	mov    $0x1,%edi
  401da6:	b8 00 00 00 00       	mov    $0x0,%eax
  401dab:	e8 70 f0 ff ff       	callq  400e20 <__printf_chk@plt>
  401db0:	bf 01 00 00 00       	mov    $0x1,%edi
  401db5:	e8 b6 f0 ff ff       	callq  400e70 <exit@plt>
  401dba:	bf 20 35 40 00       	mov    $0x403520,%edi
  401dbf:	e8 1c ef ff ff       	callq  400ce0 <puts@plt>
  401dc4:	bf 03 34 40 00       	mov    $0x403403,%edi
  401dc9:	e8 12 ef ff ff       	callq  400ce0 <puts@plt>
  401dce:	e9 a2 00 00 00       	jmpq   401e75 <notify_server+0x1e3>
  401dd3:	bf 0d 34 40 00       	mov    $0x40340d,%edi
  401dd8:	e8 03 ef ff ff       	callq  400ce0 <puts@plt>
  401ddd:	0f 1f 00             	nopl   (%rax)
  401de0:	e9 90 00 00 00       	jmpq   401e75 <notify_server+0x1e3>
  401de5:	85 db                	test   %ebx,%ebx
  401de7:	74 09                	je     401df2 <notify_server+0x160>
  401de9:	ba d1 33 40 00       	mov    $0x4033d1,%edx
  401dee:	66 90                	xchg   %ax,%ax
  401df0:	eb 05                	jmp    401df7 <notify_server+0x165>
  401df2:	ba d6 33 40 00       	mov    $0x4033d6,%edx
  401df7:	be 58 35 40 00       	mov    $0x403558,%esi
  401dfc:	bf 01 00 00 00       	mov    $0x1,%edi
  401e01:	b8 00 00 00 00       	mov    $0x0,%eax
  401e06:	e8 15 f0 ff ff       	callq  400e20 <__printf_chk@plt>
  401e0b:	48 8b 15 4e 33 20 00 	mov    0x20334e(%rip),%rdx        # 605160 <user_id>
  401e12:	be 14 34 40 00       	mov    $0x403414,%esi
  401e17:	bf 01 00 00 00       	mov    $0x1,%edi
  401e1c:	b8 00 00 00 00       	mov    $0x0,%eax
  401e21:	e8 fa ef ff ff       	callq  400e20 <__printf_chk@plt>
  401e26:	48 8b 15 4b 33 20 00 	mov    0x20334b(%rip),%rdx        # 605178 <course>
  401e2d:	be 21 34 40 00       	mov    $0x403421,%esi
  401e32:	bf 01 00 00 00       	mov    $0x1,%edi
  401e37:	b8 00 00 00 00       	mov    $0x0,%eax
  401e3c:	e8 df ef ff ff       	callq  400e20 <__printf_chk@plt>
  401e41:	48 8b 15 28 33 20 00 	mov    0x203328(%rip),%rdx        # 605170 <lab>
  401e48:	be 2d 34 40 00       	mov    $0x40342d,%esi
  401e4d:	bf 01 00 00 00       	mov    $0x1,%edi
  401e52:	b8 00 00 00 00       	mov    $0x0,%eax
  401e57:	e8 c4 ef ff ff       	callq  400e20 <__printf_chk@plt>
  401e5c:	48 8d 54 24 20       	lea    0x20(%rsp),%rdx
  401e61:	be 36 34 40 00       	mov    $0x403436,%esi
  401e66:	bf 01 00 00 00       	mov    $0x1,%edi
  401e6b:	b8 00 00 00 00       	mov    $0x0,%eax
  401e70:	e8 ab ef ff ff       	callq  400e20 <__printf_chk@plt>
  401e75:	48 8b 84 24 28 40 00 	mov    0x4028(%rsp),%rax
  401e7c:	00 
  401e7d:	64 48 33 04 25 28 00 	xor    %fs:0x28,%rax
  401e84:	00 00 
  401e86:	74 05                	je     401e8d <notify_server+0x1fb>
  401e88:	e8 73 ee ff ff       	callq  400d00 <__stack_chk_fail@plt>
  401e8d:	48 81 c4 30 40 00 00 	add    $0x4030,%rsp
  401e94:	5b                   	pop    %rbx
  401e95:	c3                   	retq   

0000000000401e96 <validate>:
  401e96:	53                   	push   %rbx
  401e97:	89 fb                	mov    %edi,%ebx
  401e99:	83 3d 88 36 20 00 00 	cmpl   $0x0,0x203688(%rip)        # 605528 <is_checker>
  401ea0:	74 6b                	je     401f0d <validate+0x77>
  401ea2:	39 3d 74 36 20 00    	cmp    %edi,0x203674(%rip)        # 60551c <vlevel>
  401ea8:	74 14                	je     401ebe <validate+0x28>
  401eaa:	bf 42 34 40 00       	mov    $0x403442,%edi
  401eaf:	e8 2c ee ff ff       	callq  400ce0 <puts@plt>
  401eb4:	b8 00 00 00 00       	mov    $0x0,%eax
  401eb9:	e8 4d fd ff ff       	callq  401c0b <check_fail>
  401ebe:	8b 15 54 36 20 00    	mov    0x203654(%rip),%edx        # 605518 <check_level>
  401ec4:	39 fa                	cmp    %edi,%edx
  401ec6:	74 20                	je     401ee8 <validate+0x52>
  401ec8:	89 f9                	mov    %edi,%ecx
  401eca:	be 80 35 40 00       	mov    $0x403580,%esi
  401ecf:	bf 01 00 00 00       	mov    $0x1,%edi
  401ed4:	b8 00 00 00 00       	mov    $0x0,%eax
  401ed9:	e8 42 ef ff ff       	callq  400e20 <__printf_chk@plt>
  401ede:	b8 00 00 00 00       	mov    $0x0,%eax
  401ee3:	e8 23 fd ff ff       	callq  401c0b <check_fail>
  401ee8:	0f be 15 59 42 20 00 	movsbl 0x204259(%rip),%edx        # 606148 <target_prefix>
  401eef:	41 b8 40 55 60 00    	mov    $0x605540,%r8d
  401ef5:	89 f9                	mov    %edi,%ecx
  401ef7:	be 60 34 40 00       	mov    $0x403460,%esi
  401efc:	bf 01 00 00 00       	mov    $0x1,%edi
  401f01:	b8 00 00 00 00       	mov    $0x0,%eax
  401f06:	e8 15 ef ff ff       	callq  400e20 <__printf_chk@plt>
  401f0b:	eb 49                	jmp    401f56 <validate+0xc0>
  401f0d:	39 3d 09 36 20 00    	cmp    %edi,0x203609(%rip)        # 60551c <vlevel>
  401f13:	74 18                	je     401f2d <validate+0x97>
  401f15:	bf 42 34 40 00       	mov    $0x403442,%edi
  401f1a:	e8 c1 ed ff ff       	callq  400ce0 <puts@plt>
  401f1f:	89 de                	mov    %ebx,%esi
  401f21:	bf 00 00 00 00       	mov    $0x0,%edi
  401f26:	e8 67 fd ff ff       	callq  401c92 <notify_server>
  401f2b:	eb 29                	jmp    401f56 <validate+0xc0>
  401f2d:	0f be 0d 14 42 20 00 	movsbl 0x204214(%rip),%ecx        # 606148 <target_prefix>
  401f34:	89 fa                	mov    %edi,%edx
  401f36:	be a8 35 40 00       	mov    $0x4035a8,%esi
  401f3b:	bf 01 00 00 00       	mov    $0x1,%edi
  401f40:	b8 00 00 00 00       	mov    $0x0,%eax
  401f45:	e8 d6 ee ff ff       	callq  400e20 <__printf_chk@plt>
  401f4a:	89 de                	mov    %ebx,%esi
  401f4c:	bf 01 00 00 00       	mov    $0x1,%edi
  401f51:	e8 3c fd ff ff       	callq  401c92 <notify_server>
  401f56:	5b                   	pop    %rbx
  401f57:	c3                   	retq   

0000000000401f58 <fail>:
  401f58:	48 83 ec 08          	sub    $0x8,%rsp
  401f5c:	83 3d c5 35 20 00 00 	cmpl   $0x0,0x2035c5(%rip)        # 605528 <is_checker>
  401f63:	74 0a                	je     401f6f <fail+0x17>
  401f65:	b8 00 00 00 00       	mov    $0x0,%eax
  401f6a:	e8 9c fc ff ff       	callq  401c0b <check_fail>
  401f6f:	89 fe                	mov    %edi,%esi
  401f71:	bf 00 00 00 00       	mov    $0x0,%edi
  401f76:	e8 17 fd ff ff       	callq  401c92 <notify_server>
  401f7b:	48 83 c4 08          	add    $0x8,%rsp
  401f7f:	c3                   	retq   

0000000000401f80 <bushandler>:
  401f80:	48 83 ec 08          	sub    $0x8,%rsp
  401f84:	83 3d 9d 35 20 00 00 	cmpl   $0x0,0x20359d(%rip)        # 605528 <is_checker>
  401f8b:	74 14                	je     401fa1 <bushandler+0x21>
  401f8d:	bf 75 34 40 00       	mov    $0x403475,%edi
  401f92:	e8 49 ed ff ff       	callq  400ce0 <puts@plt>
  401f97:	b8 00 00 00 00       	mov    $0x0,%eax
  401f9c:	e8 6a fc ff ff       	callq  401c0b <check_fail>
  401fa1:	bf e0 35 40 00       	mov    $0x4035e0,%edi
  401fa6:	e8 35 ed ff ff       	callq  400ce0 <puts@plt>
  401fab:	bf 7f 34 40 00       	mov    $0x40347f,%edi
  401fb0:	e8 2b ed ff ff       	callq  400ce0 <puts@plt>
  401fb5:	be 00 00 00 00       	mov    $0x0,%esi
  401fba:	bf 00 00 00 00       	mov    $0x0,%edi
  401fbf:	e8 ce fc ff ff       	callq  401c92 <notify_server>
  401fc4:	bf 01 00 00 00       	mov    $0x1,%edi
  401fc9:	e8 a2 ee ff ff       	callq  400e70 <exit@plt>

0000000000401fce <seghandler>:
  401fce:	48 83 ec 08          	sub    $0x8,%rsp
  401fd2:	83 3d 4f 35 20 00 00 	cmpl   $0x0,0x20354f(%rip)        # 605528 <is_checker>
  401fd9:	74 14                	je     401fef <seghandler+0x21>
  401fdb:	bf 95 34 40 00       	mov    $0x403495,%edi
  401fe0:	e8 fb ec ff ff       	callq  400ce0 <puts@plt>
  401fe5:	b8 00 00 00 00       	mov    $0x0,%eax
  401fea:	e8 1c fc ff ff       	callq  401c0b <check_fail>
  401fef:	bf 00 36 40 00       	mov    $0x403600,%edi
  401ff4:	e8 e7 ec ff ff       	callq  400ce0 <puts@plt>
  401ff9:	bf 7f 34 40 00       	mov    $0x40347f,%edi
  401ffe:	e8 dd ec ff ff       	callq  400ce0 <puts@plt>
  402003:	be 00 00 00 00       	mov    $0x0,%esi
  402008:	bf 00 00 00 00       	mov    $0x0,%edi
  40200d:	e8 80 fc ff ff       	callq  401c92 <notify_server>
  402012:	bf 01 00 00 00       	mov    $0x1,%edi
  402017:	e8 54 ee ff ff       	callq  400e70 <exit@plt>

000000000040201c <illegalhandler>:
  40201c:	48 83 ec 08          	sub    $0x8,%rsp
  402020:	83 3d 01 35 20 00 00 	cmpl   $0x0,0x203501(%rip)        # 605528 <is_checker>
  402027:	74 14                	je     40203d <illegalhandler+0x21>
  402029:	bf a8 34 40 00       	mov    $0x4034a8,%edi
  40202e:	e8 ad ec ff ff       	callq  400ce0 <puts@plt>
  402033:	b8 00 00 00 00       	mov    $0x0,%eax
  402038:	e8 ce fb ff ff       	callq  401c0b <check_fail>
  40203d:	bf 28 36 40 00       	mov    $0x403628,%edi
  402042:	e8 99 ec ff ff       	callq  400ce0 <puts@plt>
  402047:	bf 7f 34 40 00       	mov    $0x40347f,%edi
  40204c:	e8 8f ec ff ff       	callq  400ce0 <puts@plt>
  402051:	be 00 00 00 00       	mov    $0x0,%esi
  402056:	bf 00 00 00 00       	mov    $0x0,%edi
  40205b:	e8 32 fc ff ff       	callq  401c92 <notify_server>
  402060:	bf 01 00 00 00       	mov    $0x1,%edi
  402065:	e8 06 ee ff ff       	callq  400e70 <exit@plt>

000000000040206a <sigalrmhandler>:
  40206a:	48 83 ec 08          	sub    $0x8,%rsp
  40206e:	83 3d b3 34 20 00 00 	cmpl   $0x0,0x2034b3(%rip)        # 605528 <is_checker>
  402075:	74 14                	je     40208b <sigalrmhandler+0x21>
  402077:	bf bc 34 40 00       	mov    $0x4034bc,%edi
  40207c:	e8 5f ec ff ff       	callq  400ce0 <puts@plt>
  402081:	b8 00 00 00 00       	mov    $0x0,%eax
  402086:	e8 80 fb ff ff       	callq  401c0b <check_fail>
  40208b:	ba 05 00 00 00       	mov    $0x5,%edx
  402090:	be 58 36 40 00       	mov    $0x403658,%esi
  402095:	bf 01 00 00 00       	mov    $0x1,%edi
  40209a:	b8 00 00 00 00       	mov    $0x0,%eax
  40209f:	e8 7c ed ff ff       	callq  400e20 <__printf_chk@plt>
  4020a4:	be 00 00 00 00       	mov    $0x0,%esi
  4020a9:	bf 00 00 00 00       	mov    $0x0,%edi
  4020ae:	e8 df fb ff ff       	callq  401c92 <notify_server>
  4020b3:	bf 01 00 00 00       	mov    $0x1,%edi
  4020b8:	e8 b3 ed ff ff       	callq  400e70 <exit@plt>

00000000004020bd <launch>:
  4020bd:	55                   	push   %rbp
  4020be:	48 89 e5             	mov    %rsp,%rbp
  4020c1:	48 83 ec 10          	sub    $0x10,%rsp
  4020c5:	48 89 fa             	mov    %rdi,%rdx
  4020c8:	64 48 8b 04 25 28 00 	mov    %fs:0x28,%rax
  4020cf:	00 00 
  4020d1:	48 89 45 f8          	mov    %rax,-0x8(%rbp)
  4020d5:	31 c0                	xor    %eax,%eax
  4020d7:	48 8d 47 1e          	lea    0x1e(%rdi),%rax
  4020db:	48 83 e0 f0          	and    $0xfffffffffffffff0,%rax
  4020df:	48 29 c4             	sub    %rax,%rsp
  4020e2:	48 8d 7c 24 0f       	lea    0xf(%rsp),%rdi
  4020e7:	48 83 e7 f0          	and    $0xfffffffffffffff0,%rdi
  4020eb:	be f4 00 00 00       	mov    $0xf4,%esi
  4020f0:	e8 2b ec ff ff       	callq  400d20 <memset@plt>
  4020f5:	48 8b 05 c4 33 20 00 	mov    0x2033c4(%rip),%rax        # 6054c0 <stdin@@GLIBC_2.2.5>
  4020fc:	48 39 05 0d 34 20 00 	cmp    %rax,0x20340d(%rip)        # 605510 <infile>
  402103:	75 14                	jne    402119 <launch+0x5c>
  402105:	be c4 34 40 00       	mov    $0x4034c4,%esi
  40210a:	bf 01 00 00 00       	mov    $0x1,%edi
  40210f:	b8 00 00 00 00       	mov    $0x0,%eax
  402114:	e8 07 ed ff ff       	callq  400e20 <__printf_chk@plt>
  402119:	c7 05 f9 33 20 00 00 	movl   $0x0,0x2033f9(%rip)        # 60551c <vlevel>
  402120:	00 00 00 
  402123:	b8 00 00 00 00       	mov    $0x0,%eax
  402128:	e8 27 f9 ff ff       	callq  401a54 <test>
  40212d:	83 3d f4 33 20 00 00 	cmpl   $0x0,0x2033f4(%rip)        # 605528 <is_checker>
  402134:	74 14                	je     40214a <launch+0x8d>
  402136:	bf d1 34 40 00       	mov    $0x4034d1,%edi
  40213b:	e8 a0 eb ff ff       	callq  400ce0 <puts@plt>
  402140:	b8 00 00 00 00       	mov    $0x0,%eax
  402145:	e8 c1 fa ff ff       	callq  401c0b <check_fail>
  40214a:	bf dc 34 40 00       	mov    $0x4034dc,%edi
  40214f:	e8 8c eb ff ff       	callq  400ce0 <puts@plt>
  402154:	48 8b 45 f8          	mov    -0x8(%rbp),%rax
  402158:	64 48 33 04 25 28 00 	xor    %fs:0x28,%rax
  40215f:	00 00 
  402161:	74 05                	je     402168 <launch+0xab>
  402163:	e8 98 eb ff ff       	callq  400d00 <__stack_chk_fail@plt>
  402168:	c9                   	leaveq 
  402169:	c3                   	retq   

000000000040216a <stable_launch>:
  40216a:	53                   	push   %rbx
  40216b:	48 89 3d 96 33 20 00 	mov    %rdi,0x203396(%rip)        # 605508 <global_offset>
  402172:	41 b9 00 00 00 00    	mov    $0x0,%r9d
  402178:	41 b8 00 00 00 00    	mov    $0x0,%r8d
  40217e:	b9 32 01 00 00       	mov    $0x132,%ecx
  402183:	ba 07 00 00 00       	mov    $0x7,%edx
  402188:	be 00 00 10 00       	mov    $0x100000,%esi
  40218d:	bf 00 60 58 55       	mov    $0x55586000,%edi
  402192:	e8 79 eb ff ff       	callq  400d10 <mmap@plt>
  402197:	48 89 c3             	mov    %rax,%rbx
  40219a:	48 3d 00 60 58 55    	cmp    $0x55586000,%rax
  4021a0:	74 37                	je     4021d9 <stable_launch+0x6f>
  4021a2:	be 00 00 10 00       	mov    $0x100000,%esi
  4021a7:	48 89 c7             	mov    %rax,%rdi
  4021aa:	e8 61 ec ff ff       	callq  400e10 <munmap@plt>
  4021af:	b9 00 60 58 55       	mov    $0x55586000,%ecx
  4021b4:	ba 90 36 40 00       	mov    $0x403690,%edx
  4021b9:	be 01 00 00 00       	mov    $0x1,%esi
  4021be:	48 8b 3d 23 33 20 00 	mov    0x203323(%rip),%rdi        # 6054e8 <stderr@@GLIBC_2.2.5>
  4021c5:	b8 00 00 00 00       	mov    $0x0,%eax
  4021ca:	e8 c1 ec ff ff       	callq  400e90 <__fprintf_chk@plt>
  4021cf:	bf 01 00 00 00       	mov    $0x1,%edi
  4021d4:	e8 97 ec ff ff       	callq  400e70 <exit@plt>
  4021d9:	48 8d 90 f8 ff 0f 00 	lea    0xffff8(%rax),%rdx
  4021e0:	48 89 15 69 3f 20 00 	mov    %rdx,0x203f69(%rip)        # 606150 <stack_top>
  4021e7:	48 89 e0             	mov    %rsp,%rax
  4021ea:	48 89 d4             	mov    %rdx,%rsp
  4021ed:	48 89 c2             	mov    %rax,%rdx
  4021f0:	48 89 15 09 33 20 00 	mov    %rdx,0x203309(%rip)        # 605500 <global_save_stack>
  4021f7:	48 8b 3d 0a 33 20 00 	mov    0x20330a(%rip),%rdi        # 605508 <global_offset>
  4021fe:	e8 ba fe ff ff       	callq  4020bd <launch>
  402203:	48 8b 05 f6 32 20 00 	mov    0x2032f6(%rip),%rax        # 605500 <global_save_stack>
  40220a:	48 89 c4             	mov    %rax,%rsp
  40220d:	be 00 00 10 00       	mov    $0x100000,%esi
  402212:	48 89 df             	mov    %rbx,%rdi
  402215:	e8 f6 eb ff ff       	callq  400e10 <munmap@plt>
  40221a:	5b                   	pop    %rbx
  40221b:	c3                   	retq   
  40221c:	0f 1f 40 00          	nopl   0x0(%rax)

0000000000402220 <rio_readinitb>:
  402220:	89 37                	mov    %esi,(%rdi)
  402222:	c7 47 04 00 00 00 00 	movl   $0x0,0x4(%rdi)
  402229:	48 8d 47 10          	lea    0x10(%rdi),%rax
  40222d:	48 89 47 08          	mov    %rax,0x8(%rdi)
  402231:	c3                   	retq   

0000000000402232 <sigalrm_handler>:
  402232:	48 83 ec 08          	sub    $0x8,%rsp
  402236:	b9 00 00 00 00       	mov    $0x0,%ecx
  40223b:	ba d0 36 40 00       	mov    $0x4036d0,%edx
  402240:	be 01 00 00 00       	mov    $0x1,%esi
  402245:	48 8b 3d 9c 32 20 00 	mov    0x20329c(%rip),%rdi        # 6054e8 <stderr@@GLIBC_2.2.5>
  40224c:	b8 00 00 00 00       	mov    $0x0,%eax
  402251:	e8 3a ec ff ff       	callq  400e90 <__fprintf_chk@plt>
  402256:	bf 01 00 00 00       	mov    $0x1,%edi
  40225b:	e8 10 ec ff ff       	callq  400e70 <exit@plt>

0000000000402260 <rio_writen>:
  402260:	41 55                	push   %r13
  402262:	41 54                	push   %r12
  402264:	55                   	push   %rbp
  402265:	53                   	push   %rbx
  402266:	48 83 ec 08          	sub    $0x8,%rsp
  40226a:	41 89 fc             	mov    %edi,%r12d
  40226d:	48 89 f5             	mov    %rsi,%rbp
  402270:	49 89 d5             	mov    %rdx,%r13
  402273:	48 89 d3             	mov    %rdx,%rbx
  402276:	eb 28                	jmp    4022a0 <rio_writen+0x40>
  402278:	48 89 da             	mov    %rbx,%rdx
  40227b:	48 89 ee             	mov    %rbp,%rsi
  40227e:	44 89 e7             	mov    %r12d,%edi
  402281:	e8 6a ea ff ff       	callq  400cf0 <write@plt>
  402286:	48 85 c0             	test   %rax,%rax
  402289:	7f 0f                	jg     40229a <rio_writen+0x3a>
  40228b:	e8 10 ea ff ff       	callq  400ca0 <__errno_location@plt>
  402290:	83 38 04             	cmpl   $0x4,(%rax)
  402293:	75 15                	jne    4022aa <rio_writen+0x4a>
  402295:	b8 00 00 00 00       	mov    $0x0,%eax
  40229a:	48 29 c3             	sub    %rax,%rbx
  40229d:	48 01 c5             	add    %rax,%rbp
  4022a0:	48 85 db             	test   %rbx,%rbx
  4022a3:	75 d3                	jne    402278 <rio_writen+0x18>
  4022a5:	4c 89 e8             	mov    %r13,%rax
  4022a8:	eb 07                	jmp    4022b1 <rio_writen+0x51>
  4022aa:	48 c7 c0 ff ff ff ff 	mov    $0xffffffffffffffff,%rax
  4022b1:	48 83 c4 08          	add    $0x8,%rsp
  4022b5:	5b                   	pop    %rbx
  4022b6:	5d                   	pop    %rbp
  4022b7:	41 5c                	pop    %r12
  4022b9:	41 5d                	pop    %r13
  4022bb:	c3                   	retq   

00000000004022bc <rio_read>:
  4022bc:	41 56                	push   %r14
  4022be:	41 55                	push   %r13
  4022c0:	41 54                	push   %r12
  4022c2:	55                   	push   %rbp
  4022c3:	53                   	push   %rbx
  4022c4:	48 89 fb             	mov    %rdi,%rbx
  4022c7:	49 89 f6             	mov    %rsi,%r14
  4022ca:	49 89 d5             	mov    %rdx,%r13
  4022cd:	4c 8d 67 10          	lea    0x10(%rdi),%r12
  4022d1:	eb 2a                	jmp    4022fd <rio_read+0x41>
  4022d3:	8b 3b                	mov    (%rbx),%edi
  4022d5:	ba 00 20 00 00       	mov    $0x2000,%edx
  4022da:	4c 89 e6             	mov    %r12,%rsi
  4022dd:	e8 6e ea ff ff       	callq  400d50 <read@plt>
  4022e2:	89 43 04             	mov    %eax,0x4(%rbx)
  4022e5:	85 c0                	test   %eax,%eax
  4022e7:	79 0c                	jns    4022f5 <rio_read+0x39>
  4022e9:	e8 b2 e9 ff ff       	callq  400ca0 <__errno_location@plt>
  4022ee:	83 38 04             	cmpl   $0x4,(%rax)
  4022f1:	74 0a                	je     4022fd <rio_read+0x41>
  4022f3:	eb 37                	jmp    40232c <rio_read+0x70>
  4022f5:	85 c0                	test   %eax,%eax
  4022f7:	74 3c                	je     402335 <rio_read+0x79>
  4022f9:	4c 89 63 08          	mov    %r12,0x8(%rbx)
  4022fd:	8b 6b 04             	mov    0x4(%rbx),%ebp
  402300:	85 ed                	test   %ebp,%ebp
  402302:	7e cf                	jle    4022d3 <rio_read+0x17>
  402304:	89 e8                	mov    %ebp,%eax
  402306:	4c 39 e8             	cmp    %r13,%rax
  402309:	72 03                	jb     40230e <rio_read+0x52>
  40230b:	44 89 ed             	mov    %r13d,%ebp
  40230e:	4c 63 e5             	movslq %ebp,%r12
  402311:	48 8b 73 08          	mov    0x8(%rbx),%rsi
  402315:	4c 89 e2             	mov    %r12,%rdx
  402318:	4c 89 f7             	mov    %r14,%rdi
  40231b:	e8 a0 ea ff ff       	callq  400dc0 <memcpy@plt>
  402320:	4c 01 63 08          	add    %r12,0x8(%rbx)
  402324:	29 6b 04             	sub    %ebp,0x4(%rbx)
  402327:	4c 89 e0             	mov    %r12,%rax
  40232a:	eb 0e                	jmp    40233a <rio_read+0x7e>
  40232c:	48 c7 c0 ff ff ff ff 	mov    $0xffffffffffffffff,%rax
  402333:	eb 05                	jmp    40233a <rio_read+0x7e>
  402335:	b8 00 00 00 00       	mov    $0x0,%eax
  40233a:	5b                   	pop    %rbx
  40233b:	5d                   	pop    %rbp
  40233c:	41 5c                	pop    %r12
  40233e:	41 5d                	pop    %r13
  402340:	41 5e                	pop    %r14
  402342:	c3                   	retq   

0000000000402343 <rio_readlineb>:
  402343:	41 55                	push   %r13
  402345:	41 54                	push   %r12
  402347:	55                   	push   %rbp
  402348:	53                   	push   %rbx
  402349:	48 83 ec 18          	sub    $0x18,%rsp
  40234d:	49 89 fd             	mov    %rdi,%r13
  402350:	48 89 f5             	mov    %rsi,%rbp
  402353:	49 89 d4             	mov    %rdx,%r12
  402356:	bb 01 00 00 00       	mov    $0x1,%ebx
  40235b:	eb 3e                	jmp    40239b <rio_readlineb+0x58>
  40235d:	ba 01 00 00 00       	mov    $0x1,%edx
  402362:	48 8d 74 24 0f       	lea    0xf(%rsp),%rsi
  402367:	4c 89 ef             	mov    %r13,%rdi
  40236a:	e8 4d ff ff ff       	callq  4022bc <rio_read>
  40236f:	83 f8 01             	cmp    $0x1,%eax
  402372:	75 12                	jne    402386 <rio_readlineb+0x43>
  402374:	48 8d 55 01          	lea    0x1(%rbp),%rdx
  402378:	0f b6 44 24 0f       	movzbl 0xf(%rsp),%eax
  40237d:	88 45 00             	mov    %al,0x0(%rbp)
  402380:	3c 0a                	cmp    $0xa,%al
  402382:	75 10                	jne    402394 <rio_readlineb+0x51>
  402384:	eb 1c                	jmp    4023a2 <rio_readlineb+0x5f>
  402386:	85 c0                	test   %eax,%eax
  402388:	75 24                	jne    4023ae <rio_readlineb+0x6b>
  40238a:	48 83 fb 01          	cmp    $0x1,%rbx
  40238e:	66 90                	xchg   %ax,%ax
  402390:	75 13                	jne    4023a5 <rio_readlineb+0x62>
  402392:	eb 23                	jmp    4023b7 <rio_readlineb+0x74>
  402394:	48 83 c3 01          	add    $0x1,%rbx
  402398:	48 89 d5             	mov    %rdx,%rbp
  40239b:	4c 39 e3             	cmp    %r12,%rbx
  40239e:	72 bd                	jb     40235d <rio_readlineb+0x1a>
  4023a0:	eb 03                	jmp    4023a5 <rio_readlineb+0x62>
  4023a2:	48 89 d5             	mov    %rdx,%rbp
  4023a5:	c6 45 00 00          	movb   $0x0,0x0(%rbp)
  4023a9:	48 89 d8             	mov    %rbx,%rax
  4023ac:	eb 0e                	jmp    4023bc <rio_readlineb+0x79>
  4023ae:	48 c7 c0 ff ff ff ff 	mov    $0xffffffffffffffff,%rax
  4023b5:	eb 05                	jmp    4023bc <rio_readlineb+0x79>
  4023b7:	b8 00 00 00 00       	mov    $0x0,%eax
  4023bc:	48 83 c4 18          	add    $0x18,%rsp
  4023c0:	5b                   	pop    %rbx
  4023c1:	5d                   	pop    %rbp
  4023c2:	41 5c                	pop    %r12
  4023c4:	41 5d                	pop    %r13
  4023c6:	c3                   	retq   

00000000004023c7 <urlencode>:
  4023c7:	41 54                	push   %r12
  4023c9:	55                   	push   %rbp
  4023ca:	53                   	push   %rbx
  4023cb:	48 83 ec 10          	sub    $0x10,%rsp
  4023cf:	48 89 fb             	mov    %rdi,%rbx
  4023d2:	48 89 f5             	mov    %rsi,%rbp
  4023d5:	64 48 8b 04 25 28 00 	mov    %fs:0x28,%rax
  4023dc:	00 00 
  4023de:	48 89 44 24 08       	mov    %rax,0x8(%rsp)
  4023e3:	31 c0                	xor    %eax,%eax
  4023e5:	48 c7 c1 ff ff ff ff 	mov    $0xffffffffffffffff,%rcx
  4023ec:	f2 ae                	repnz scas %es:(%rdi),%al
  4023ee:	48 f7 d1             	not    %rcx
  4023f1:	8d 41 ff             	lea    -0x1(%rcx),%eax
  4023f4:	e9 aa 00 00 00       	jmpq   4024a3 <urlencode+0xdc>
  4023f9:	44 0f b6 03          	movzbl (%rbx),%r8d
  4023fd:	41 80 f8 2a          	cmp    $0x2a,%r8b
  402401:	0f 94 c2             	sete   %dl
  402404:	41 80 f8 2d          	cmp    $0x2d,%r8b
  402408:	0f 94 c0             	sete   %al
  40240b:	08 c2                	or     %al,%dl
  40240d:	75 24                	jne    402433 <urlencode+0x6c>
  40240f:	41 80 f8 2e          	cmp    $0x2e,%r8b
  402413:	74 1e                	je     402433 <urlencode+0x6c>
  402415:	41 80 f8 5f          	cmp    $0x5f,%r8b
  402419:	74 18                	je     402433 <urlencode+0x6c>
  40241b:	41 8d 40 d0          	lea    -0x30(%r8),%eax
  40241f:	3c 09                	cmp    $0x9,%al
  402421:	76 10                	jbe    402433 <urlencode+0x6c>
  402423:	41 8d 40 bf          	lea    -0x41(%r8),%eax
  402427:	3c 19                	cmp    $0x19,%al
  402429:	76 08                	jbe    402433 <urlencode+0x6c>
  40242b:	41 8d 40 9f          	lea    -0x61(%r8),%eax
  40242f:	3c 19                	cmp    $0x19,%al
  402431:	77 0a                	ja     40243d <urlencode+0x76>
  402433:	44 88 45 00          	mov    %r8b,0x0(%rbp)
  402437:	48 8d 6d 01          	lea    0x1(%rbp),%rbp
  40243b:	eb 5f                	jmp    40249c <urlencode+0xd5>
  40243d:	41 80 f8 20          	cmp    $0x20,%r8b
  402441:	75 0a                	jne    40244d <urlencode+0x86>
  402443:	c6 45 00 2b          	movb   $0x2b,0x0(%rbp)
  402447:	48 8d 6d 01          	lea    0x1(%rbp),%rbp
  40244b:	eb 4f                	jmp    40249c <urlencode+0xd5>
  40244d:	41 8d 40 e0          	lea    -0x20(%r8),%eax
  402451:	3c 5f                	cmp    $0x5f,%al
  402453:	0f 96 c2             	setbe  %dl
  402456:	41 80 f8 09          	cmp    $0x9,%r8b
  40245a:	0f 94 c0             	sete   %al
  40245d:	08 c2                	or     %al,%dl
  40245f:	74 50                	je     4024b1 <urlencode+0xea>
  402461:	45 0f b6 c0          	movzbl %r8b,%r8d
  402465:	b9 68 37 40 00       	mov    $0x403768,%ecx
  40246a:	ba 08 00 00 00       	mov    $0x8,%edx
  40246f:	be 01 00 00 00       	mov    $0x1,%esi
  402474:	48 89 e7             	mov    %rsp,%rdi
  402477:	b8 00 00 00 00       	mov    $0x0,%eax
  40247c:	e8 1f ea ff ff       	callq  400ea0 <__sprintf_chk@plt>
  402481:	0f b6 04 24          	movzbl (%rsp),%eax
  402485:	88 45 00             	mov    %al,0x0(%rbp)
  402488:	0f b6 44 24 01       	movzbl 0x1(%rsp),%eax
  40248d:	88 45 01             	mov    %al,0x1(%rbp)
  402490:	0f b6 44 24 02       	movzbl 0x2(%rsp),%eax
  402495:	88 45 02             	mov    %al,0x2(%rbp)
  402498:	48 8d 6d 03          	lea    0x3(%rbp),%rbp
  40249c:	48 83 c3 01          	add    $0x1,%rbx
  4024a0:	44 89 e0             	mov    %r12d,%eax
  4024a3:	44 8d 60 ff          	lea    -0x1(%rax),%r12d
  4024a7:	85 c0                	test   %eax,%eax
  4024a9:	0f 85 4a ff ff ff    	jne    4023f9 <urlencode+0x32>
  4024af:	eb 05                	jmp    4024b6 <urlencode+0xef>
  4024b1:	b8 ff ff ff ff       	mov    $0xffffffff,%eax
  4024b6:	48 8b 74 24 08       	mov    0x8(%rsp),%rsi
  4024bb:	64 48 33 34 25 28 00 	xor    %fs:0x28,%rsi
  4024c2:	00 00 
  4024c4:	74 05                	je     4024cb <urlencode+0x104>
  4024c6:	e8 35 e8 ff ff       	callq  400d00 <__stack_chk_fail@plt>
  4024cb:	48 83 c4 10          	add    $0x10,%rsp
  4024cf:	5b                   	pop    %rbx
  4024d0:	5d                   	pop    %rbp
  4024d1:	41 5c                	pop    %r12
  4024d3:	c3                   	retq   

00000000004024d4 <submitr>:
  4024d4:	41 57                	push   %r15
  4024d6:	41 56                	push   %r14
  4024d8:	41 55                	push   %r13
  4024da:	41 54                	push   %r12
  4024dc:	55                   	push   %rbp
  4024dd:	53                   	push   %rbx
  4024de:	48 81 ec 68 a0 00 00 	sub    $0xa068,%rsp
  4024e5:	49 89 fc             	mov    %rdi,%r12
  4024e8:	89 74 24 14          	mov    %esi,0x14(%rsp)
  4024ec:	49 89 d7             	mov    %rdx,%r15
  4024ef:	49 89 ce             	mov    %rcx,%r14
  4024f2:	4c 89 44 24 18       	mov    %r8,0x18(%rsp)
  4024f7:	4d 89 cd             	mov    %r9,%r13
  4024fa:	48 8b 9c 24 a0 a0 00 	mov    0xa0a0(%rsp),%rbx
  402501:	00 
  402502:	64 48 8b 04 25 28 00 	mov    %fs:0x28,%rax
  402509:	00 00 
  40250b:	48 89 84 24 58 a0 00 	mov    %rax,0xa058(%rsp)
  402512:	00 
  402513:	31 c0                	xor    %eax,%eax
  402515:	c7 44 24 2c 00 00 00 	movl   $0x0,0x2c(%rsp)
  40251c:	00 
  40251d:	ba 00 00 00 00       	mov    $0x0,%edx
  402522:	be 01 00 00 00       	mov    $0x1,%esi
  402527:	bf 02 00 00 00       	mov    $0x2,%edi
  40252c:	e8 7f e9 ff ff       	callq  400eb0 <socket@plt>
  402531:	89 c5                	mov    %eax,%ebp
  402533:	85 c0                	test   %eax,%eax
  402535:	79 4e                	jns    402585 <submitr+0xb1>
  402537:	48 b8 45 72 72 6f 72 	movabs $0x43203a726f727245,%rax
  40253e:	3a 20 43 
  402541:	48 89 03             	mov    %rax,(%rbx)
  402544:	48 b8 6c 69 65 6e 74 	movabs $0x6e7520746e65696c,%rax
  40254b:	20 75 6e 
  40254e:	48 89 43 08          	mov    %rax,0x8(%rbx)
  402552:	48 b8 61 62 6c 65 20 	movabs $0x206f7420656c6261,%rax
  402559:	74 6f 20 
  40255c:	48 89 43 10          	mov    %rax,0x10(%rbx)
  402560:	48 b8 63 72 65 61 74 	movabs $0x7320657461657263,%rax
  402567:	65 20 73 
  40256a:	48 89 43 18          	mov    %rax,0x18(%rbx)
  40256e:	c7 43 20 6f 63 6b 65 	movl   $0x656b636f,0x20(%rbx)
  402575:	66 c7 43 24 74 00    	movw   $0x74,0x24(%rbx)
  40257b:	b8 ff ff ff ff       	mov    $0xffffffff,%eax
  402580:	e9 84 06 00 00       	jmpq   402c09 <submitr+0x735>
  402585:	4c 89 e7             	mov    %r12,%rdi
  402588:	e8 f3 e7 ff ff       	callq  400d80 <gethostbyname@plt>
  40258d:	48 85 c0             	test   %rax,%rax
  402590:	75 67                	jne    4025f9 <submitr+0x125>
  402592:	48 b8 45 72 72 6f 72 	movabs $0x44203a726f727245,%rax
  402599:	3a 20 44 
  40259c:	48 89 03             	mov    %rax,(%rbx)
  40259f:	48 b8 4e 53 20 69 73 	movabs $0x6e7520736920534e,%rax
  4025a6:	20 75 6e 
  4025a9:	48 89 43 08          	mov    %rax,0x8(%rbx)
  4025ad:	48 b8 61 62 6c 65 20 	movabs $0x206f7420656c6261,%rax
  4025b4:	74 6f 20 
  4025b7:	48 89 43 10          	mov    %rax,0x10(%rbx)
  4025bb:	48 b8 72 65 73 6f 6c 	movabs $0x2065766c6f736572,%rax
  4025c2:	76 65 20 
  4025c5:	48 89 43 18          	mov    %rax,0x18(%rbx)
  4025c9:	48 b8 73 65 72 76 65 	movabs $0x6120726576726573,%rax
  4025d0:	72 20 61 
  4025d3:	48 89 43 20          	mov    %rax,0x20(%rbx)
  4025d7:	c7 43 28 64 64 72 65 	movl   $0x65726464,0x28(%rbx)
  4025de:	66 c7 43 2c 73 73    	movw   $0x7373,0x2c(%rbx)
  4025e4:	c6 43 2e 00          	movb   $0x0,0x2e(%rbx)
  4025e8:	89 ef                	mov    %ebp,%edi
  4025ea:	e8 51 e7 ff ff       	callq  400d40 <close@plt>
  4025ef:	b8 ff ff ff ff       	mov    $0xffffffff,%eax
  4025f4:	e9 10 06 00 00       	jmpq   402c09 <submitr+0x735>
  4025f9:	48 c7 44 24 30 00 00 	movq   $0x0,0x30(%rsp)
  402600:	00 00 
  402602:	48 c7 44 24 38 00 00 	movq   $0x0,0x38(%rsp)
  402609:	00 00 
  40260b:	66 c7 44 24 30 02 00 	movw   $0x2,0x30(%rsp)
  402612:	48 63 50 14          	movslq 0x14(%rax),%rdx
  402616:	48 8b 40 18          	mov    0x18(%rax),%rax
  40261a:	48 8b 30             	mov    (%rax),%rsi
  40261d:	48 8d 7c 24 34       	lea    0x34(%rsp),%rdi
  402622:	b9 0c 00 00 00       	mov    $0xc,%ecx
  402627:	e8 64 e7 ff ff       	callq  400d90 <__memmove_chk@plt>
  40262c:	0f b7 44 24 14       	movzwl 0x14(%rsp),%eax
  402631:	66 c1 c8 08          	ror    $0x8,%ax
  402635:	66 89 44 24 32       	mov    %ax,0x32(%rsp)
  40263a:	ba 10 00 00 00       	mov    $0x10,%edx
  40263f:	48 8d 74 24 30       	lea    0x30(%rsp),%rsi
  402644:	89 ef                	mov    %ebp,%edi
  402646:	e8 35 e8 ff ff       	callq  400e80 <connect@plt>
  40264b:	85 c0                	test   %eax,%eax
  40264d:	79 59                	jns    4026a8 <submitr+0x1d4>
  40264f:	48 b8 45 72 72 6f 72 	movabs $0x55203a726f727245,%rax
  402656:	3a 20 55 
  402659:	48 89 03             	mov    %rax,(%rbx)
  40265c:	48 b8 6e 61 62 6c 65 	movabs $0x6f7420656c62616e,%rax
  402663:	20 74 6f 
  402666:	48 89 43 08          	mov    %rax,0x8(%rbx)
  40266a:	48 b8 20 63 6f 6e 6e 	movabs $0x7463656e6e6f6320,%rax
  402671:	65 63 74 
  402674:	48 89 43 10          	mov    %rax,0x10(%rbx)
  402678:	48 b8 20 74 6f 20 74 	movabs $0x20656874206f7420,%rax
  40267f:	68 65 20 
  402682:	48 89 43 18          	mov    %rax,0x18(%rbx)
  402686:	c7 43 20 73 65 72 76 	movl   $0x76726573,0x20(%rbx)
  40268d:	66 c7 43 24 65 72    	movw   $0x7265,0x24(%rbx)
  402693:	c6 43 26 00          	movb   $0x0,0x26(%rbx)
  402697:	89 ef                	mov    %ebp,%edi
  402699:	e8 a2 e6 ff ff       	callq  400d40 <close@plt>
  40269e:	b8 ff ff ff ff       	mov    $0xffffffff,%eax
  4026a3:	e9 61 05 00 00       	jmpq   402c09 <submitr+0x735>
  4026a8:	48 c7 c2 ff ff ff ff 	mov    $0xffffffffffffffff,%rdx
  4026af:	4c 89 ef             	mov    %r13,%rdi
  4026b2:	b8 00 00 00 00       	mov    $0x0,%eax
  4026b7:	48 89 d1             	mov    %rdx,%rcx
  4026ba:	f2 ae                	repnz scas %es:(%rdi),%al
  4026bc:	48 f7 d1             	not    %rcx
  4026bf:	48 89 ce             	mov    %rcx,%rsi
  4026c2:	4c 89 ff             	mov    %r15,%rdi
  4026c5:	48 89 d1             	mov    %rdx,%rcx
  4026c8:	f2 ae                	repnz scas %es:(%rdi),%al
  4026ca:	48 f7 d1             	not    %rcx
  4026cd:	49 89 c8             	mov    %rcx,%r8
  4026d0:	4c 89 f7             	mov    %r14,%rdi
  4026d3:	48 89 d1             	mov    %rdx,%rcx
  4026d6:	f2 ae                	repnz scas %es:(%rdi),%al
  4026d8:	49 29 c8             	sub    %rcx,%r8
  4026db:	48 8b 7c 24 18       	mov    0x18(%rsp),%rdi
  4026e0:	48 89 d1             	mov    %rdx,%rcx
  4026e3:	f2 ae                	repnz scas %es:(%rdi),%al
  4026e5:	49 29 c8             	sub    %rcx,%r8
  4026e8:	48 8d 44 76 fd       	lea    -0x3(%rsi,%rsi,2),%rax
  4026ed:	49 8d 44 00 7b       	lea    0x7b(%r8,%rax,1),%rax
  4026f2:	48 3d 00 20 00 00    	cmp    $0x2000,%rax
  4026f8:	76 72                	jbe    40276c <submitr+0x298>
  4026fa:	48 b8 45 72 72 6f 72 	movabs $0x52203a726f727245,%rax
  402701:	3a 20 52 
  402704:	48 89 03             	mov    %rax,(%rbx)
  402707:	48 b8 65 73 75 6c 74 	movabs $0x747320746c757365,%rax
  40270e:	20 73 74 
  402711:	48 89 43 08          	mov    %rax,0x8(%rbx)
  402715:	48 b8 72 69 6e 67 20 	movabs $0x6f6f7420676e6972,%rax
  40271c:	74 6f 6f 
  40271f:	48 89 43 10          	mov    %rax,0x10(%rbx)
  402723:	48 b8 20 6c 61 72 67 	movabs $0x202e656772616c20,%rax
  40272a:	65 2e 20 
  40272d:	48 89 43 18          	mov    %rax,0x18(%rbx)
  402731:	48 b8 49 6e 63 72 65 	movabs $0x6573616572636e49,%rax
  402738:	61 73 65 
  40273b:	48 89 43 20          	mov    %rax,0x20(%rbx)
  40273f:	48 b8 20 53 55 42 4d 	movabs $0x5254494d42555320,%rax
  402746:	49 54 52 
  402749:	48 89 43 28          	mov    %rax,0x28(%rbx)
  40274d:	48 b8 5f 4d 41 58 42 	movabs $0x46554258414d5f,%rax
  402754:	55 46 00 
  402757:	48 89 43 30          	mov    %rax,0x30(%rbx)
  40275b:	89 ef                	mov    %ebp,%edi
  40275d:	e8 de e5 ff ff       	callq  400d40 <close@plt>
  402762:	b8 ff ff ff ff       	mov    $0xffffffff,%eax
  402767:	e9 9d 04 00 00       	jmpq   402c09 <submitr+0x735>
  40276c:	48 8d b4 24 40 20 00 	lea    0x2040(%rsp),%rsi
  402773:	00 
  402774:	b9 00 04 00 00       	mov    $0x400,%ecx
  402779:	b8 00 00 00 00       	mov    $0x0,%eax
  40277e:	48 89 f7             	mov    %rsi,%rdi
  402781:	f3 48 ab             	rep stos %rax,%es:(%rdi)
  402784:	4c 89 ef             	mov    %r13,%rdi
  402787:	e8 3b fc ff ff       	callq  4023c7 <urlencode>
  40278c:	85 c0                	test   %eax,%eax
  40278e:	0f 89 8a 00 00 00    	jns    40281e <submitr+0x34a>
  402794:	48 b8 45 72 72 6f 72 	movabs $0x52203a726f727245,%rax
  40279b:	3a 20 52 
  40279e:	48 89 03             	mov    %rax,(%rbx)
  4027a1:	48 b8 65 73 75 6c 74 	movabs $0x747320746c757365,%rax
  4027a8:	20 73 74 
  4027ab:	48 89 43 08          	mov    %rax,0x8(%rbx)
  4027af:	48 b8 72 69 6e 67 20 	movabs $0x6e6f6320676e6972,%rax
  4027b6:	63 6f 6e 
  4027b9:	48 89 43 10          	mov    %rax,0x10(%rbx)
  4027bd:	48 b8 74 61 69 6e 73 	movabs $0x6e6120736e696174,%rax
  4027c4:	20 61 6e 
  4027c7:	48 89 43 18          	mov    %rax,0x18(%rbx)
  4027cb:	48 b8 20 69 6c 6c 65 	movabs $0x6c6167656c6c6920,%rax
  4027d2:	67 61 6c 
  4027d5:	48 89 43 20          	mov    %rax,0x20(%rbx)
  4027d9:	48 b8 20 6f 72 20 75 	movabs $0x72706e7520726f20,%rax
  4027e0:	6e 70 72 
  4027e3:	48 89 43 28          	mov    %rax,0x28(%rbx)
  4027e7:	48 b8 69 6e 74 61 62 	movabs $0x20656c6261746e69,%rax
  4027ee:	6c 65 20 
  4027f1:	48 89 43 30          	mov    %rax,0x30(%rbx)
  4027f5:	48 b8 63 68 61 72 61 	movabs $0x6574636172616863,%rax
  4027fc:	63 74 65 
  4027ff:	48 89 43 38          	mov    %rax,0x38(%rbx)
  402803:	66 c7 43 40 72 2e    	movw   $0x2e72,0x40(%rbx)
  402809:	c6 43 42 00          	movb   $0x0,0x42(%rbx)
  40280d:	89 ef                	mov    %ebp,%edi
  40280f:	e8 2c e5 ff ff       	callq  400d40 <close@plt>
  402814:	b8 ff ff ff ff       	mov    $0xffffffff,%eax
  402819:	e9 eb 03 00 00       	jmpq   402c09 <submitr+0x735>
  40281e:	4c 89 64 24 08       	mov    %r12,0x8(%rsp)
  402823:	48 8d 84 24 40 20 00 	lea    0x2040(%rsp),%rax
  40282a:	00 
  40282b:	48 89 04 24          	mov    %rax,(%rsp)
  40282f:	4d 89 f9             	mov    %r15,%r9
  402832:	4d 89 f0             	mov    %r14,%r8
  402835:	b9 f8 36 40 00       	mov    $0x4036f8,%ecx
  40283a:	ba 00 20 00 00       	mov    $0x2000,%edx
  40283f:	be 01 00 00 00       	mov    $0x1,%esi
  402844:	48 8d 7c 24 40       	lea    0x40(%rsp),%rdi
  402849:	b8 00 00 00 00       	mov    $0x0,%eax
  40284e:	e8 4d e6 ff ff       	callq  400ea0 <__sprintf_chk@plt>
  402853:	48 8d 7c 24 40       	lea    0x40(%rsp),%rdi
  402858:	b8 00 00 00 00       	mov    $0x0,%eax
  40285d:	48 c7 c1 ff ff ff ff 	mov    $0xffffffffffffffff,%rcx
  402864:	f2 ae                	repnz scas %es:(%rdi),%al
  402866:	48 f7 d1             	not    %rcx
  402869:	48 8d 51 ff          	lea    -0x1(%rcx),%rdx
  40286d:	48 8d 74 24 40       	lea    0x40(%rsp),%rsi
  402872:	89 ef                	mov    %ebp,%edi
  402874:	e8 e7 f9 ff ff       	callq  402260 <rio_writen>
  402879:	48 85 c0             	test   %rax,%rax
  40287c:	79 6e                	jns    4028ec <submitr+0x418>
  40287e:	48 b8 45 72 72 6f 72 	movabs $0x43203a726f727245,%rax
  402885:	3a 20 43 
  402888:	48 89 03             	mov    %rax,(%rbx)
  40288b:	48 b8 6c 69 65 6e 74 	movabs $0x6e7520746e65696c,%rax
  402892:	20 75 6e 
  402895:	48 89 43 08          	mov    %rax,0x8(%rbx)
  402899:	48 b8 61 62 6c 65 20 	movabs $0x206f7420656c6261,%rax
  4028a0:	74 6f 20 
  4028a3:	48 89 43 10          	mov    %rax,0x10(%rbx)
  4028a7:	48 b8 77 72 69 74 65 	movabs $0x6f74206574697277,%rax
  4028ae:	20 74 6f 
  4028b1:	48 89 43 18          	mov    %rax,0x18(%rbx)
  4028b5:	48 b8 20 74 68 65 20 	movabs $0x7365722065687420,%rax
  4028bc:	72 65 73 
  4028bf:	48 89 43 20          	mov    %rax,0x20(%rbx)
  4028c3:	48 b8 75 6c 74 20 73 	movabs $0x7672657320746c75,%rax
  4028ca:	65 72 76 
  4028cd:	48 89 43 28          	mov    %rax,0x28(%rbx)
  4028d1:	66 c7 43 30 65 72    	movw   $0x7265,0x30(%rbx)
  4028d7:	c6 43 32 00          	movb   $0x0,0x32(%rbx)
  4028db:	89 ef                	mov    %ebp,%edi
  4028dd:	e8 5e e4 ff ff       	callq  400d40 <close@plt>
  4028e2:	b8 ff ff ff ff       	mov    $0xffffffff,%eax
  4028e7:	e9 1d 03 00 00       	jmpq   402c09 <submitr+0x735>
  4028ec:	89 ee                	mov    %ebp,%esi
  4028ee:	48 8d bc 24 40 80 00 	lea    0x8040(%rsp),%rdi
  4028f5:	00 
  4028f6:	e8 25 f9 ff ff       	callq  402220 <rio_readinitb>
  4028fb:	ba 00 20 00 00       	mov    $0x2000,%edx
  402900:	48 8d 74 24 40       	lea    0x40(%rsp),%rsi
  402905:	48 8d bc 24 40 80 00 	lea    0x8040(%rsp),%rdi
  40290c:	00 
  40290d:	e8 31 fa ff ff       	callq  402343 <rio_readlineb>
  402912:	48 85 c0             	test   %rax,%rax
  402915:	7f 7d                	jg     402994 <submitr+0x4c0>
  402917:	48 b8 45 72 72 6f 72 	movabs $0x43203a726f727245,%rax
  40291e:	3a 20 43 
  402921:	48 89 03             	mov    %rax,(%rbx)
  402924:	48 b8 6c 69 65 6e 74 	movabs $0x6e7520746e65696c,%rax
  40292b:	20 75 6e 
  40292e:	48 89 43 08          	mov    %rax,0x8(%rbx)
  402932:	48 b8 61 62 6c 65 20 	movabs $0x206f7420656c6261,%rax
  402939:	74 6f 20 
  40293c:	48 89 43 10          	mov    %rax,0x10(%rbx)
  402940:	48 b8 72 65 61 64 20 	movabs $0x7269662064616572,%rax
  402947:	66 69 72 
  40294a:	48 89 43 18          	mov    %rax,0x18(%rbx)
  40294e:	48 b8 73 74 20 68 65 	movabs $0x6564616568207473,%rax
  402955:	61 64 65 
  402958:	48 89 43 20          	mov    %rax,0x20(%rbx)
  40295c:	48 b8 72 20 66 72 6f 	movabs $0x72206d6f72662072,%rax
  402963:	6d 20 72 
  402966:	48 89 43 28          	mov    %rax,0x28(%rbx)
  40296a:	48 b8 65 73 75 6c 74 	movabs $0x657320746c757365,%rax
  402971:	20 73 65 
  402974:	48 89 43 30          	mov    %rax,0x30(%rbx)
  402978:	c7 43 38 72 76 65 72 	movl   $0x72657672,0x38(%rbx)
  40297f:	c6 43 3c 00          	movb   $0x0,0x3c(%rbx)
  402983:	89 ef                	mov    %ebp,%edi
  402985:	e8 b6 e3 ff ff       	callq  400d40 <close@plt>
  40298a:	b8 ff ff ff ff       	mov    $0xffffffff,%eax
  40298f:	e9 75 02 00 00       	jmpq   402c09 <submitr+0x735>
  402994:	4c 8d 84 24 40 60 00 	lea    0x6040(%rsp),%r8
  40299b:	00 
  40299c:	48 8d 4c 24 2c       	lea    0x2c(%rsp),%rcx
  4029a1:	48 8d 94 24 40 40 00 	lea    0x4040(%rsp),%rdx
  4029a8:	00 
  4029a9:	be 6f 37 40 00       	mov    $0x40376f,%esi
  4029ae:	48 8d 7c 24 40       	lea    0x40(%rsp),%rdi
  4029b3:	b8 00 00 00 00       	mov    $0x0,%eax
  4029b8:	e8 43 e4 ff ff       	callq  400e00 <__isoc99_sscanf@plt>
  4029bd:	41 bc 0d 00 00 00    	mov    $0xd,%r12d
  4029c3:	41 bd 0a 00 00 00    	mov    $0xa,%r13d
  4029c9:	e9 95 00 00 00       	jmpq   402a63 <submitr+0x58f>
  4029ce:	ba 00 20 00 00       	mov    $0x2000,%edx
  4029d3:	48 8d 74 24 40       	lea    0x40(%rsp),%rsi
  4029d8:	48 8d bc 24 40 80 00 	lea    0x8040(%rsp),%rdi
  4029df:	00 
  4029e0:	e8 5e f9 ff ff       	callq  402343 <rio_readlineb>
  4029e5:	48 85 c0             	test   %rax,%rax
  4029e8:	7f 79                	jg     402a63 <submitr+0x58f>
  4029ea:	48 b8 45 72 72 6f 72 	movabs $0x43203a726f727245,%rax
  4029f1:	3a 20 43 
  4029f4:	48 89 03             	mov    %rax,(%rbx)
  4029f7:	48 b8 6c 69 65 6e 74 	movabs $0x6e7520746e65696c,%rax
  4029fe:	20 75 6e 
  402a01:	48 89 43 08          	mov    %rax,0x8(%rbx)
  402a05:	48 b8 61 62 6c 65 20 	movabs $0x206f7420656c6261,%rax
  402a0c:	74 6f 20 
  402a0f:	48 89 43 10          	mov    %rax,0x10(%rbx)
  402a13:	48 b8 72 65 61 64 20 	movabs $0x6165682064616572,%rax
  402a1a:	68 65 61 
  402a1d:	48 89 43 18          	mov    %rax,0x18(%rbx)
  402a21:	48 b8 64 65 72 73 20 	movabs $0x6f72662073726564,%rax
  402a28:	66 72 6f 
  402a2b:	48 89 43 20          	mov    %rax,0x20(%rbx)
  402a2f:	48 b8 6d 20 74 68 65 	movabs $0x657220656874206d,%rax
  402a36:	20 72 65 
  402a39:	48 89 43 28          	mov    %rax,0x28(%rbx)
  402a3d:	48 b8 73 75 6c 74 20 	movabs $0x72657320746c7573,%rax
  402a44:	73 65 72 
  402a47:	48 89 43 30          	mov    %rax,0x30(%rbx)
  402a4b:	c7 43 38 76 65 72 00 	movl   $0x726576,0x38(%rbx)
  402a52:	89 ef                	mov    %ebp,%edi
  402a54:	e8 e7 e2 ff ff       	callq  400d40 <close@plt>
  402a59:	b8 ff ff ff ff       	mov    $0xffffffff,%eax
  402a5e:	e9 a6 01 00 00       	jmpq   402c09 <submitr+0x735>
  402a63:	0f b6 44 24 40       	movzbl 0x40(%rsp),%eax
  402a68:	44 89 e6             	mov    %r12d,%esi
  402a6b:	29 c6                	sub    %eax,%esi
  402a6d:	89 f0                	mov    %esi,%eax
  402a6f:	75 15                	jne    402a86 <submitr+0x5b2>
  402a71:	0f b6 44 24 41       	movzbl 0x41(%rsp),%eax
  402a76:	44 89 ea             	mov    %r13d,%edx
  402a79:	29 c2                	sub    %eax,%edx
  402a7b:	89 d0                	mov    %edx,%eax
  402a7d:	75 07                	jne    402a86 <submitr+0x5b2>
  402a7f:	0f b6 44 24 42       	movzbl 0x42(%rsp),%eax
  402a84:	f7 d8                	neg    %eax
  402a86:	85 c0                	test   %eax,%eax
  402a88:	0f 85 40 ff ff ff    	jne    4029ce <submitr+0x4fa>
  402a8e:	ba 00 20 00 00       	mov    $0x2000,%edx
  402a93:	48 8d 74 24 40       	lea    0x40(%rsp),%rsi
  402a98:	48 8d bc 24 40 80 00 	lea    0x8040(%rsp),%rdi
  402a9f:	00 
  402aa0:	e8 9e f8 ff ff       	callq  402343 <rio_readlineb>
  402aa5:	48 85 c0             	test   %rax,%rax
  402aa8:	0f 8f 83 00 00 00    	jg     402b31 <submitr+0x65d>
  402aae:	48 b8 45 72 72 6f 72 	movabs $0x43203a726f727245,%rax
  402ab5:	3a 20 43 
  402ab8:	48 89 03             	mov    %rax,(%rbx)
  402abb:	48 b8 6c 69 65 6e 74 	movabs $0x6e7520746e65696c,%rax
  402ac2:	20 75 6e 
  402ac5:	48 89 43 08          	mov    %rax,0x8(%rbx)
  402ac9:	48 b8 61 62 6c 65 20 	movabs $0x206f7420656c6261,%rax
  402ad0:	74 6f 20 
  402ad3:	48 89 43 10          	mov    %rax,0x10(%rbx)
  402ad7:	48 b8 72 65 61 64 20 	movabs $0x6174732064616572,%rax
  402ade:	73 74 61 
  402ae1:	48 89 43 18          	mov    %rax,0x18(%rbx)
  402ae5:	48 b8 74 75 73 20 6d 	movabs $0x7373656d20737574,%rax
  402aec:	65 73 73 
  402aef:	48 89 43 20          	mov    %rax,0x20(%rbx)
  402af3:	48 b8 61 67 65 20 66 	movabs $0x6d6f726620656761,%rax
  402afa:	72 6f 6d 
  402afd:	48 89 43 28          	mov    %rax,0x28(%rbx)
  402b01:	48 b8 20 72 65 73 75 	movabs $0x20746c7573657220,%rax
  402b08:	6c 74 20 
  402b0b:	48 89 43 30          	mov    %rax,0x30(%rbx)
  402b0f:	c7 43 38 73 65 72 76 	movl   $0x76726573,0x38(%rbx)
  402b16:	66 c7 43 3c 65 72    	movw   $0x7265,0x3c(%rbx)
  402b1c:	c6 43 3e 00          	movb   $0x0,0x3e(%rbx)
  402b20:	89 ef                	mov    %ebp,%edi
  402b22:	e8 19 e2 ff ff       	callq  400d40 <close@plt>
  402b27:	b8 ff ff ff ff       	mov    $0xffffffff,%eax
  402b2c:	e9 d8 00 00 00       	jmpq   402c09 <submitr+0x735>
  402b31:	44 8b 44 24 2c       	mov    0x2c(%rsp),%r8d
  402b36:	41 81 f8 c8 00 00 00 	cmp    $0xc8,%r8d
  402b3d:	74 37                	je     402b76 <submitr+0x6a2>
  402b3f:	4c 8d 8c 24 40 60 00 	lea    0x6040(%rsp),%r9
  402b46:	00 
  402b47:	b9 38 37 40 00       	mov    $0x403738,%ecx
  402b4c:	48 c7 c2 ff ff ff ff 	mov    $0xffffffffffffffff,%rdx
  402b53:	be 01 00 00 00       	mov    $0x1,%esi
  402b58:	48 89 df             	mov    %rbx,%rdi
  402b5b:	b8 00 00 00 00       	mov    $0x0,%eax
  402b60:	e8 3b e3 ff ff       	callq  400ea0 <__sprintf_chk@plt>
  402b65:	89 ef                	mov    %ebp,%edi
  402b67:	e8 d4 e1 ff ff       	callq  400d40 <close@plt>
  402b6c:	b8 ff ff ff ff       	mov    $0xffffffff,%eax
  402b71:	e9 93 00 00 00       	jmpq   402c09 <submitr+0x735>
  402b76:	48 8d 74 24 40       	lea    0x40(%rsp),%rsi
  402b7b:	48 89 df             	mov    %rbx,%rdi
  402b7e:	e8 4d e1 ff ff       	callq  400cd0 <strcpy@plt>
  402b83:	89 ef                	mov    %ebp,%edi
  402b85:	e8 b6 e1 ff ff       	callq  400d40 <close@plt>
  402b8a:	0f b6 03             	movzbl (%rbx),%eax
  402b8d:	ba 4f 00 00 00       	mov    $0x4f,%edx
  402b92:	29 c2                	sub    %eax,%edx
  402b94:	75 22                	jne    402bb8 <submitr+0x6e4>
  402b96:	0f b6 4b 01          	movzbl 0x1(%rbx),%ecx
  402b9a:	b8 4b 00 00 00       	mov    $0x4b,%eax
  402b9f:	29 c8                	sub    %ecx,%eax
  402ba1:	75 17                	jne    402bba <submitr+0x6e6>
  402ba3:	0f b6 4b 02          	movzbl 0x2(%rbx),%ecx
  402ba7:	b8 0a 00 00 00       	mov    $0xa,%eax
  402bac:	29 c8                	sub    %ecx,%eax
  402bae:	75 0a                	jne    402bba <submitr+0x6e6>
  402bb0:	0f b6 43 03          	movzbl 0x3(%rbx),%eax
  402bb4:	f7 d8                	neg    %eax
  402bb6:	eb 02                	jmp    402bba <submitr+0x6e6>
  402bb8:	89 d0                	mov    %edx,%eax
  402bba:	85 c0                	test   %eax,%eax
  402bbc:	74 38                	je     402bf6 <submitr+0x722>
  402bbe:	bf 80 37 40 00       	mov    $0x403780,%edi
  402bc3:	b9 05 00 00 00       	mov    $0x5,%ecx
  402bc8:	48 89 de             	mov    %rbx,%rsi
  402bcb:	f3 a6                	repz cmpsb %es:(%rdi),%ds:(%rsi)
  402bcd:	0f 97 c1             	seta   %cl
  402bd0:	0f 92 c0             	setb   %al
  402bd3:	38 c1                	cmp    %al,%cl
  402bd5:	74 26                	je     402bfd <submitr+0x729>
  402bd7:	85 d2                	test   %edx,%edx
  402bd9:	75 10                	jne    402beb <submitr+0x717>
  402bdb:	0f b6 43 01          	movzbl 0x1(%rbx),%eax
  402bdf:	b2 4b                	mov    $0x4b,%dl
  402be1:	29 c2                	sub    %eax,%edx
  402be3:	75 06                	jne    402beb <submitr+0x717>
  402be5:	0f b6 53 02          	movzbl 0x2(%rbx),%edx
  402be9:	f7 da                	neg    %edx
  402beb:	85 d2                	test   %edx,%edx
  402bed:	75 15                	jne    402c04 <submitr+0x730>
  402bef:	b8 00 00 00 00       	mov    $0x0,%eax
  402bf4:	eb 13                	jmp    402c09 <submitr+0x735>
  402bf6:	b8 00 00 00 00       	mov    $0x0,%eax
  402bfb:	eb 0c                	jmp    402c09 <submitr+0x735>
  402bfd:	b8 00 00 00 00       	mov    $0x0,%eax
  402c02:	eb 05                	jmp    402c09 <submitr+0x735>
  402c04:	b8 ff ff ff ff       	mov    $0xffffffff,%eax
  402c09:	48 8b 9c 24 58 a0 00 	mov    0xa058(%rsp),%rbx
  402c10:	00 
  402c11:	64 48 33 1c 25 28 00 	xor    %fs:0x28,%rbx
  402c18:	00 00 
  402c1a:	74 05                	je     402c21 <submitr+0x74d>
  402c1c:	e8 df e0 ff ff       	callq  400d00 <__stack_chk_fail@plt>
  402c21:	48 81 c4 68 a0 00 00 	add    $0xa068,%rsp
  402c28:	5b                   	pop    %rbx
  402c29:	5d                   	pop    %rbp
  402c2a:	41 5c                	pop    %r12
  402c2c:	41 5d                	pop    %r13
  402c2e:	41 5e                	pop    %r14
  402c30:	41 5f                	pop    %r15
  402c32:	c3                   	retq   

0000000000402c33 <init_timeout>:
  402c33:	53                   	push   %rbx
  402c34:	89 fb                	mov    %edi,%ebx
  402c36:	85 ff                	test   %edi,%edi
  402c38:	74 1f                	je     402c59 <init_timeout+0x26>
  402c3a:	85 ff                	test   %edi,%edi
  402c3c:	79 05                	jns    402c43 <init_timeout+0x10>
  402c3e:	bb 00 00 00 00       	mov    $0x0,%ebx
  402c43:	be 32 22 40 00       	mov    $0x402232,%esi
  402c48:	bf 0e 00 00 00       	mov    $0xe,%edi
  402c4d:	e8 1e e1 ff ff       	callq  400d70 <signal@plt>
  402c52:	89 df                	mov    %ebx,%edi
  402c54:	e8 d7 e0 ff ff       	callq  400d30 <alarm@plt>
  402c59:	5b                   	pop    %rbx
  402c5a:	c3                   	retq   

0000000000402c5b <init_driver>:
  402c5b:	55                   	push   %rbp
  402c5c:	53                   	push   %rbx
  402c5d:	48 83 ec 28          	sub    $0x28,%rsp
  402c61:	48 89 fd             	mov    %rdi,%rbp
  402c64:	64 48 8b 04 25 28 00 	mov    %fs:0x28,%rax
  402c6b:	00 00 
  402c6d:	48 89 44 24 18       	mov    %rax,0x18(%rsp)
  402c72:	31 c0                	xor    %eax,%eax
  402c74:	be 01 00 00 00       	mov    $0x1,%esi
  402c79:	bf 0d 00 00 00       	mov    $0xd,%edi
  402c7e:	e8 ed e0 ff ff       	callq  400d70 <signal@plt>
  402c83:	be 01 00 00 00       	mov    $0x1,%esi
  402c88:	bf 1d 00 00 00       	mov    $0x1d,%edi
  402c8d:	e8 de e0 ff ff       	callq  400d70 <signal@plt>
  402c92:	be 01 00 00 00       	mov    $0x1,%esi
  402c97:	bf 1d 00 00 00       	mov    $0x1d,%edi
  402c9c:	e8 cf e0 ff ff       	callq  400d70 <signal@plt>
  402ca1:	ba 00 00 00 00       	mov    $0x0,%edx
  402ca6:	be 01 00 00 00       	mov    $0x1,%esi
  402cab:	bf 02 00 00 00       	mov    $0x2,%edi
  402cb0:	e8 fb e1 ff ff       	callq  400eb0 <socket@plt>
  402cb5:	89 c3                	mov    %eax,%ebx
  402cb7:	85 c0                	test   %eax,%eax
  402cb9:	79 4f                	jns    402d0a <init_driver+0xaf>
  402cbb:	48 b8 45 72 72 6f 72 	movabs $0x43203a726f727245,%rax
  402cc2:	3a 20 43 
  402cc5:	48 89 45 00          	mov    %rax,0x0(%rbp)
  402cc9:	48 b8 6c 69 65 6e 74 	movabs $0x6e7520746e65696c,%rax
  402cd0:	20 75 6e 
  402cd3:	48 89 45 08          	mov    %rax,0x8(%rbp)
  402cd7:	48 b8 61 62 6c 65 20 	movabs $0x206f7420656c6261,%rax
  402cde:	74 6f 20 
  402ce1:	48 89 45 10          	mov    %rax,0x10(%rbp)
  402ce5:	48 b8 63 72 65 61 74 	movabs $0x7320657461657263,%rax
  402cec:	65 20 73 
  402cef:	48 89 45 18          	mov    %rax,0x18(%rbp)
  402cf3:	c7 45 20 6f 63 6b 65 	movl   $0x656b636f,0x20(%rbp)
  402cfa:	66 c7 45 24 74 00    	movw   $0x74,0x24(%rbp)
  402d00:	b8 ff ff ff ff       	mov    $0xffffffff,%eax
  402d05:	e9 28 01 00 00       	jmpq   402e32 <init_driver+0x1d7>
  402d0a:	bf bf 32 40 00       	mov    $0x4032bf,%edi
  402d0f:	e8 6c e0 ff ff       	callq  400d80 <gethostbyname@plt>
  402d14:	48 85 c0             	test   %rax,%rax
  402d17:	75 68                	jne    402d81 <init_driver+0x126>
  402d19:	48 b8 45 72 72 6f 72 	movabs $0x44203a726f727245,%rax
  402d20:	3a 20 44 
  402d23:	48 89 45 00          	mov    %rax,0x0(%rbp)
  402d27:	48 b8 4e 53 20 69 73 	movabs $0x6e7520736920534e,%rax
  402d2e:	20 75 6e 
  402d31:	48 89 45 08          	mov    %rax,0x8(%rbp)
  402d35:	48 b8 61 62 6c 65 20 	movabs $0x206f7420656c6261,%rax
  402d3c:	74 6f 20 
  402d3f:	48 89 45 10          	mov    %rax,0x10(%rbp)
  402d43:	48 b8 72 65 73 6f 6c 	movabs $0x2065766c6f736572,%rax
  402d4a:	76 65 20 
  402d4d:	48 89 45 18          	mov    %rax,0x18(%rbp)
  402d51:	48 b8 73 65 72 76 65 	movabs $0x6120726576726573,%rax
  402d58:	72 20 61 
  402d5b:	48 89 45 20          	mov    %rax,0x20(%rbp)
  402d5f:	c7 45 28 64 64 72 65 	movl   $0x65726464,0x28(%rbp)
  402d66:	66 c7 45 2c 73 73    	movw   $0x7373,0x2c(%rbp)
  402d6c:	c6 45 2e 00          	movb   $0x0,0x2e(%rbp)
  402d70:	89 df                	mov    %ebx,%edi
  402d72:	e8 c9 df ff ff       	callq  400d40 <close@plt>
  402d77:	b8 ff ff ff ff       	mov    $0xffffffff,%eax
  402d7c:	e9 b1 00 00 00       	jmpq   402e32 <init_driver+0x1d7>
  402d81:	48 c7 04 24 00 00 00 	movq   $0x0,(%rsp)
  402d88:	00 
  402d89:	48 c7 44 24 08 00 00 	movq   $0x0,0x8(%rsp)
  402d90:	00 00 
  402d92:	66 c7 04 24 02 00    	movw   $0x2,(%rsp)
  402d98:	48 63 50 14          	movslq 0x14(%rax),%rdx
  402d9c:	48 8b 40 18          	mov    0x18(%rax),%rax
  402da0:	48 8b 30             	mov    (%rax),%rsi
  402da3:	48 8d 7c 24 04       	lea    0x4(%rsp),%rdi
  402da8:	b9 0c 00 00 00       	mov    $0xc,%ecx
  402dad:	e8 de df ff ff       	callq  400d90 <__memmove_chk@plt>
  402db2:	66 c7 44 24 02 4e f3 	movw   $0xf34e,0x2(%rsp)
  402db9:	ba 10 00 00 00       	mov    $0x10,%edx
  402dbe:	48 89 e6             	mov    %rsp,%rsi
  402dc1:	89 df                	mov    %ebx,%edi
  402dc3:	e8 b8 e0 ff ff       	callq  400e80 <connect@plt>
  402dc8:	85 c0                	test   %eax,%eax
  402dca:	79 50                	jns    402e1c <init_driver+0x1c1>
  402dcc:	48 b8 45 72 72 6f 72 	movabs $0x55203a726f727245,%rax
  402dd3:	3a 20 55 
  402dd6:	48 89 45 00          	mov    %rax,0x0(%rbp)
  402dda:	48 b8 6e 61 62 6c 65 	movabs $0x6f7420656c62616e,%rax
  402de1:	20 74 6f 
  402de4:	48 89 45 08          	mov    %rax,0x8(%rbp)
  402de8:	48 b8 20 63 6f 6e 6e 	movabs $0x7463656e6e6f6320,%rax
  402def:	65 63 74 
  402df2:	48 89 45 10          	mov    %rax,0x10(%rbp)
  402df6:	48 b8 20 74 6f 20 73 	movabs $0x76726573206f7420,%rax
  402dfd:	65 72 76 
  402e00:	48 89 45 18          	mov    %rax,0x18(%rbp)
  402e04:	66 c7 45 20 65 72    	movw   $0x7265,0x20(%rbp)
  402e0a:	c6 45 22 00          	movb   $0x0,0x22(%rbp)
  402e0e:	89 df                	mov    %ebx,%edi
  402e10:	e8 2b df ff ff       	callq  400d40 <close@plt>
  402e15:	b8 ff ff ff ff       	mov    $0xffffffff,%eax
  402e1a:	eb 16                	jmp    402e32 <init_driver+0x1d7>
  402e1c:	89 df                	mov    %ebx,%edi
  402e1e:	e8 1d df ff ff       	callq  400d40 <close@plt>
  402e23:	66 c7 45 00 4f 4b    	movw   $0x4b4f,0x0(%rbp)
  402e29:	c6 45 02 00          	movb   $0x0,0x2(%rbp)
  402e2d:	b8 00 00 00 00       	mov    $0x0,%eax
  402e32:	48 8b 4c 24 18       	mov    0x18(%rsp),%rcx
  402e37:	64 48 33 0c 25 28 00 	xor    %fs:0x28,%rcx
  402e3e:	00 00 
  402e40:	74 05                	je     402e47 <init_driver+0x1ec>
  402e42:	e8 b9 de ff ff       	callq  400d00 <__stack_chk_fail@plt>
  402e47:	48 83 c4 28          	add    $0x28,%rsp
  402e4b:	5b                   	pop    %rbx
  402e4c:	5d                   	pop    %rbp
  402e4d:	c3                   	retq   

0000000000402e4e <driver_post>:
  402e4e:	53                   	push   %rbx
  402e4f:	48 83 ec 10          	sub    $0x10,%rsp
  402e53:	4c 89 cb             	mov    %r9,%rbx
  402e56:	45 85 c0             	test   %r8d,%r8d
  402e59:	74 27                	je     402e82 <driver_post+0x34>
  402e5b:	48 89 ca             	mov    %rcx,%rdx
  402e5e:	be 85 37 40 00       	mov    $0x403785,%esi
  402e63:	bf 01 00 00 00       	mov    $0x1,%edi
  402e68:	b8 00 00 00 00       	mov    $0x0,%eax
  402e6d:	e8 ae df ff ff       	callq  400e20 <__printf_chk@plt>
  402e72:	66 c7 03 4f 4b       	movw   $0x4b4f,(%rbx)
  402e77:	c6 43 02 00          	movb   $0x0,0x2(%rbx)
  402e7b:	b8 00 00 00 00       	mov    $0x0,%eax
  402e80:	eb 39                	jmp    402ebb <driver_post+0x6d>
  402e82:	48 85 ff             	test   %rdi,%rdi
  402e85:	74 26                	je     402ead <driver_post+0x5f>
  402e87:	80 3f 00             	cmpb   $0x0,(%rdi)
  402e8a:	74 21                	je     402ead <driver_post+0x5f>
  402e8c:	4c 89 0c 24          	mov    %r9,(%rsp)
  402e90:	49 89 c9             	mov    %rcx,%r9
  402e93:	49 89 d0             	mov    %rdx,%r8
  402e96:	48 89 f9             	mov    %rdi,%rcx
  402e99:	48 89 f2             	mov    %rsi,%rdx
  402e9c:	be f3 4e 00 00       	mov    $0x4ef3,%esi
  402ea1:	bf bf 32 40 00       	mov    $0x4032bf,%edi
  402ea6:	e8 29 f6 ff ff       	callq  4024d4 <submitr>
  402eab:	eb 0e                	jmp    402ebb <driver_post+0x6d>
  402ead:	66 c7 03 4f 4b       	movw   $0x4b4f,(%rbx)
  402eb2:	c6 43 02 00          	movb   $0x0,0x2(%rbx)
  402eb6:	b8 00 00 00 00       	mov    $0x0,%eax
  402ebb:	48 83 c4 10          	add    $0x10,%rsp
  402ebf:	5b                   	pop    %rbx
  402ec0:	c3                   	retq   

0000000000402ec1 <check>:
  402ec1:	89 f8                	mov    %edi,%eax
  402ec3:	c1 e8 1c             	shr    $0x1c,%eax
  402ec6:	85 c0                	test   %eax,%eax
  402ec8:	74 1d                	je     402ee7 <check+0x26>
  402eca:	b9 00 00 00 00       	mov    $0x0,%ecx
  402ecf:	eb 0b                	jmp    402edc <check+0x1b>
  402ed1:	89 f8                	mov    %edi,%eax
  402ed3:	d3 e8                	shr    %cl,%eax
  402ed5:	3c 0a                	cmp    $0xa,%al
  402ed7:	74 14                	je     402eed <check+0x2c>
  402ed9:	83 c1 08             	add    $0x8,%ecx
  402edc:	83 f9 1f             	cmp    $0x1f,%ecx
  402edf:	7e f0                	jle    402ed1 <check+0x10>
  402ee1:	b8 01 00 00 00       	mov    $0x1,%eax
  402ee6:	c3                   	retq   
  402ee7:	b8 00 00 00 00       	mov    $0x0,%eax
  402eec:	c3                   	retq   
  402eed:	b8 00 00 00 00       	mov    $0x0,%eax
  402ef2:	c3                   	retq   

0000000000402ef3 <gencookie>:
  402ef3:	53                   	push   %rbx
  402ef4:	83 c7 01             	add    $0x1,%edi
  402ef7:	e8 b4 dd ff ff       	callq  400cb0 <srandom@plt>
  402efc:	e8 df de ff ff       	callq  400de0 <random@plt>
  402f01:	89 c3                	mov    %eax,%ebx
  402f03:	89 c7                	mov    %eax,%edi
  402f05:	e8 b7 ff ff ff       	callq  402ec1 <check>
  402f0a:	85 c0                	test   %eax,%eax
  402f0c:	74 ee                	je     402efc <gencookie+0x9>
  402f0e:	89 d8                	mov    %ebx,%eax
  402f10:	5b                   	pop    %rbx
  402f11:	c3                   	retq   
  402f12:	66 2e 0f 1f 84 00 00 	nopw   %cs:0x0(%rax,%rax,1)
  402f19:	00 00 00 
  402f1c:	0f 1f 40 00          	nopl   0x0(%rax)

0000000000402f20 <__libc_csu_init>:
  402f20:	41 57                	push   %r15
  402f22:	41 89 ff             	mov    %edi,%r15d
  402f25:	41 56                	push   %r14
  402f27:	49 89 f6             	mov    %rsi,%r14
  402f2a:	41 55                	push   %r13
  402f2c:	49 89 d5             	mov    %rdx,%r13
  402f2f:	41 54                	push   %r12
  402f31:	4c 8d 25 d8 1e 20 00 	lea    0x201ed8(%rip),%r12        # 604e10 <__frame_dummy_init_array_entry>
  402f38:	55                   	push   %rbp
  402f39:	48 8d 2d d8 1e 20 00 	lea    0x201ed8(%rip),%rbp        # 604e18 <__init_array_end>
  402f40:	53                   	push   %rbx
  402f41:	4c 29 e5             	sub    %r12,%rbp
  402f44:	31 db                	xor    %ebx,%ebx
  402f46:	48 c1 fd 03          	sar    $0x3,%rbp
  402f4a:	48 83 ec 08          	sub    $0x8,%rsp
  402f4e:	e8 0d dd ff ff       	callq  400c60 <_init>
  402f53:	48 85 ed             	test   %rbp,%rbp
  402f56:	74 1e                	je     402f76 <__libc_csu_init+0x56>
  402f58:	0f 1f 84 00 00 00 00 	nopl   0x0(%rax,%rax,1)
  402f5f:	00 
  402f60:	4c 89 ea             	mov    %r13,%rdx
  402f63:	4c 89 f6             	mov    %r14,%rsi
  402f66:	44 89 ff             	mov    %r15d,%edi
  402f69:	41 ff 14 dc          	callq  *(%r12,%rbx,8)
  402f6d:	48 83 c3 01          	add    $0x1,%rbx
  402f71:	48 39 eb             	cmp    %rbp,%rbx
  402f74:	75 ea                	jne    402f60 <__libc_csu_init+0x40>
  402f76:	48 83 c4 08          	add    $0x8,%rsp
  402f7a:	5b                   	pop    %rbx
  402f7b:	5d                   	pop    %rbp
  402f7c:	41 5c                	pop    %r12
  402f7e:	41 5d                	pop    %r13
  402f80:	41 5e                	pop    %r14
  402f82:	41 5f                	pop    %r15
  402f84:	c3                   	retq   
  402f85:	66 66 2e 0f 1f 84 00 	data16 nopw %cs:0x0(%rax,%rax,1)
  402f8c:	00 00 00 00 

0000000000402f90 <__libc_csu_fini>:
  402f90:	f3 c3                	repz retq 

Disassembly of section .fini:

0000000000402f94 <_fini>:
  402f94:	48 83 ec 08          	sub    $0x8,%rsp
  402f98:	48 83 c4 08          	add    $0x8,%rsp
  402f9c:	c3                   	retq   
